(lp0
S'/home/harrigan/projects/msmaccelerator2.villin/project/trajs/b4095f1e-a6a5-42d6-992d-b306e5631f12.h5'
p1
aS'/home/harrigan/projects/msmaccelerator2.villin/project/trajs/e1735657-2904-4976-bf84-ff25770aa9c0.h5'
p2
aS'/home/harrigan/projects/msmaccelerator2.villin/project/trajs/1298f0e8-b3b5-4a39-ad60-a9b1186f1620.h5'
p3
aS'/home/harrigan/projects/msmaccelerator2.villin/project/trajs/56ca51d8-3735-49c0-9160-b020429867a0.h5'
p4
aS'/home/harrigan/projects/msmaccelerator2.villin/project/trajs/1574c35a-2cfe-4f25-85f0-3b3bb4691231.h5'
p5
aS'/home/harrigan/projects/msmaccelerator2.villin/project/trajs/6c58b845-3c6d-41bb-966e-6876b3bb5432.h5'
p6
aS'/home/harrigan/projects/msmaccelerator2.villin/project/trajs/32fe0f46-669b-4a8b-82fc-5e29f675502b.h5'
p7
aS'/home/harrigan/projects/msmaccelerator2.villin/project/trajs/41eb8975-3788-49c1-b4b5-794a0e7f3531.h5'
p8
aS'/home/harrigan/projects/msmaccelerator2.villin/project/trajs/3a0a10f5-917c-4a74-b926-9324170ec7b9.h5'
p9
aS'/home/harrigan/projects/msmaccelerator2.villin/project/trajs/9cee0df9-942c-467c-98e4-72b73919d6ca.h5'
p10
aS'/home/harrigan/projects/msmaccelerator2.villin/project/trajs/9a027840-d9aa-4972-bb47-e29432b41d63.h5'
p11
aS'/home/harrigan/projects/msmaccelerator2.villin/project/trajs/7b87225e-f734-49eb-a972-2574d5111c9a.h5'
p12
aS'/home/harrigan/projects/msmaccelerator2.villin/project/trajs/8042123c-9f1d-4bb4-9d7c-982a95e599ba.h5'
p13
aS'/home/harrigan/projects/msmaccelerator2.villin/project/trajs/fc9b1113-4472-4ec4-bda1-5a43cb6596df.h5'
p14
aS'/home/harrigan/projects/msmaccelerator2.villin/project/trajs/cebe783f-a7d0-4eda-ada5-05ec946fd636.h5'
p15
aS'/home/harrigan/projects/msmaccelerator2.villin/project/trajs/8e158436-4c21-47c0-a822-a9c5fdc5c6a8.h5'
p16
aS'/home/harrigan/projects/msmaccelerator2.villin/project/trajs/dd2106fc-5968-46e6-aa6a-82c79c067c31.h5'
p17
aS'/home/harrigan/projects/msmaccelerator2.villin/project/trajs/7c802c7f-c9d2-4800-ada5-cd8936af2b27.h5'
p18
aS'/home/harrigan/projects/msmaccelerator2.villin/project/trajs/5faa2c83-3289-4da3-bdf8-7e5f14da04f1.h5'
p19
aS'/home/harrigan/projects/msmaccelerator2.villin/project/trajs/47caad50-f272-4a6f-a1f2-f9bb37326e87.h5'
p20
aS'/home/harrigan/projects/msmaccelerator2.villin/project/trajs/2cbb9451-8a02-49a2-8fab-18af742231c9.h5'
p21
aS'/home/harrigan/projects/msmaccelerator2.villin/project/trajs/b785ad65-8a9c-4926-b650-39aabf461964.h5'
p22
aS'/home/harrigan/projects/msmaccelerator2.villin/project/trajs/00f99f2f-b137-4c24-9b52-cbe706e20040.h5'
p23
aS'/home/harrigan/projects/msmaccelerator2.villin/project/trajs/61c5e208-696f-4ac1-be1a-32b67d4c1036.h5'
p24
aS'/home/harrigan/projects/msmaccelerator2.villin/project/trajs/e12d2a78-baea-44ac-a1b5-bb2cfa78abca.h5'
p25
aS'/home/harrigan/projects/msmaccelerator2.villin/project/trajs/4ede2a2e-ec9c-4c84-a4ac-371340c59ef8.h5'
p26
aS'/home/harrigan/projects/msmaccelerator2.villin/project/trajs/669729cf-ab0a-4e0e-ad03-062eb81dfe06.h5'
p27
aS'/home/harrigan/projects/msmaccelerator2.villin/project/trajs/8cb754bc-9bee-4de0-a581-f2199689035d.h5'
p28
aS'/home/harrigan/projects/msmaccelerator2.villin/project/trajs/1f20dd7e-19cf-45b0-9a71-811786b1c6ef.h5'
p29
aS'/home/harrigan/projects/msmaccelerator2.villin/project/trajs/0d68a0a5-2ffc-4192-9809-24ed0b2f987d.h5'
p30
aS'/home/harrigan/projects/msmaccelerator2.villin/project/trajs/00636c6c-b6bc-48c0-ba93-e0e83818d9f5.h5'
p31
aS'/home/harrigan/projects/msmaccelerator2.villin/project/trajs/4e405773-9bbe-4c07-9c08-726b2f14fc57.h5'
p32
aS'/home/harrigan/projects/msmaccelerator2.villin/project/trajs/eda6834e-da23-4fc2-82e8-5693dbb41c40.h5'
p33
aS'/home/harrigan/projects/msmaccelerator2.villin/project/trajs/838231f6-2ace-42ec-924f-a8afd2e664d3.h5'
p34
aS'/home/harrigan/projects/msmaccelerator2.villin/project/trajs/7298050b-8809-4a62-b76d-75b4a601249d.h5'
p35
aS'/home/harrigan/projects/msmaccelerator2.villin/project/trajs/40ec97df-4d61-4898-af9a-afee763de3a2.h5'
p36
aS'/home/harrigan/projects/msmaccelerator2.villin/project/trajs/58d70345-9250-4e55-a1fa-2fe12b7059a6.h5'
p37
aS'/home/harrigan/projects/msmaccelerator2.villin/project/trajs/4e1a8753-184c-4056-9809-d6312f5f0d56.h5'
p38
aS'/home/harrigan/projects/msmaccelerator2.villin/project/trajs/a757cdcb-c5a2-4473-b57c-0350c0c66272.h5'
p39
aS'/home/harrigan/projects/msmaccelerator2.villin/project/trajs/f1b11feb-90ef-4a35-94e8-2f32acc05294.h5'
p40
aS'/home/harrigan/projects/msmaccelerator2.villin/project/trajs/cefffd18-74ac-4b68-8e7b-27c43f490253.h5'
p41
aS'/home/harrigan/projects/msmaccelerator2.villin/project/trajs/766c0003-2a15-4954-8492-ae99bf5d0344.h5'
p42
aS'/home/harrigan/projects/msmaccelerator2.villin/project/trajs/c3aaa322-8205-4324-95ac-c54ccf3089cb.h5'
p43
aS'/home/harrigan/projects/msmaccelerator2.villin/project/trajs/6f48f2e3-a79c-4cbd-88c3-974eff61413c.h5'
p44
aS'/home/harrigan/projects/msmaccelerator2.villin/project/trajs/a13c7489-f11f-4480-bd4c-2ebe50b2a54d.h5'
p45
aS'/home/harrigan/projects/msmaccelerator2.villin/project/trajs/b607327c-7c74-45ac-8cb7-fe4e49cd3a2d.h5'
p46
aS'/home/harrigan/projects/msmaccelerator2.villin/project/trajs/b1429c42-e459-4f0a-afe8-bd976638470c.h5'
p47
aS'/home/harrigan/projects/msmaccelerator2.villin/project/trajs/c3834d65-b23e-4608-bedb-5567d00942fd.h5'
p48
aS'/home/harrigan/projects/msmaccelerator2.villin/project/trajs/410ab626-c0cc-433b-a385-bfe86c7ca195.h5'
p49
aS'/home/harrigan/projects/msmaccelerator2.villin/project/trajs/04b1d0c5-18f5-4998-90a5-9650b45f2f3b.h5'
p50
aS'/home/harrigan/projects/msmaccelerator2.villin/project/trajs/59aa6fa9-f8fd-49e6-b6ac-2c27f24b47c9.h5'
p51
aS'/home/harrigan/projects/msmaccelerator2.villin/project/trajs/aa8a00a5-eb55-4f49-9e7e-686fd8a8b83a.h5'
p52
aS'/home/harrigan/projects/msmaccelerator2.villin/project/trajs/cc2ffc7d-6f22-48ed-ae71-fc2ab33429fa.h5'
p53
aS'/home/harrigan/projects/msmaccelerator2.villin/project/trajs/40c1f176-e50d-4fb8-873b-0af92825db9a.h5'
p54
aS'/home/harrigan/projects/msmaccelerator2.villin/project/trajs/4aac7ef0-a48f-495b-b0c5-3d477ede5cf3.h5'
p55
aS'/home/harrigan/projects/msmaccelerator2.villin/project/trajs/a8f0213d-7a0b-41cf-9f9d-82ced8b7ca24.h5'
p56
aS'/home/harrigan/projects/msmaccelerator2.villin/project/trajs/683fd02e-9b84-4d71-a26c-d04cab74fbeb.h5'
p57
aS'/home/harrigan/projects/msmaccelerator2.villin/project/trajs/eac083e1-d5b1-41b8-910c-cda8ca08c348.h5'
p58
aS'/home/harrigan/projects/msmaccelerator2.villin/project/trajs/3999349b-8d14-4c69-8067-0354bc23d602.h5'
p59
aS'/home/harrigan/projects/msmaccelerator2.villin/project/trajs/1508f19b-0187-4012-b53f-7801f3568ba4.h5'
p60
aS'/home/harrigan/projects/msmaccelerator2.villin/project/trajs/ae3760ef-bbde-4a04-a842-6051c9e0ad1a.h5'
p61
aS'/home/harrigan/projects/msmaccelerator2.villin/project/trajs/744db6fd-e0b7-4416-84b2-9468ceb845f4.h5'
p62
aS'/home/harrigan/projects/msmaccelerator2.villin/project/trajs/296e6d96-be46-48ec-b914-df8e40996210.h5'
p63
aS'/home/harrigan/projects/msmaccelerator2.villin/project/trajs/f987ed5a-3151-4bb9-8c1a-35a4344bdf5c.h5'
p64
aS'/home/harrigan/projects/msmaccelerator2.villin/project/trajs/9fb925aa-ecf9-4567-b27c-e11d6b71fcf9.h5'
p65
aS'/home/harrigan/projects/msmaccelerator2.villin/project/trajs/41e59dad-38a7-4961-b35b-98e96cb3353d.h5'
p66
aS'/home/harrigan/projects/msmaccelerator2.villin/project/trajs/dca111dc-0c33-4e86-b66c-deb28b718c27.h5'
p67
aS'/home/harrigan/projects/msmaccelerator2.villin/project/trajs/2944df97-2272-417d-a18e-d8815e801046.h5'
p68
aS'/home/harrigan/projects/msmaccelerator2.villin/project/trajs/21f048ff-5694-4629-931c-690efccc8ddf.h5'
p69
aS'/home/harrigan/projects/msmaccelerator2.villin/project/trajs/3ffda2f8-6b8e-4563-b773-c7a35b227a15.h5'
p70
aS'/home/harrigan/projects/msmaccelerator2.villin/project/trajs/610a5394-063c-48b5-a207-ee02931f5e6a.h5'
p71
aS'/home/harrigan/projects/msmaccelerator2.villin/project/trajs/6cd2848f-8f59-4242-a7a5-d9d9860b7307.h5'
p72
aS'/home/harrigan/projects/msmaccelerator2.villin/project/trajs/0603e9d4-f8af-415a-8750-94757a1bb128.h5'
p73
aS'/home/harrigan/projects/msmaccelerator2.villin/project/trajs/e4429f63-6530-4465-bbed-66718b1ee509.h5'
p74
aS'/home/harrigan/projects/msmaccelerator2.villin/project/trajs/5778d847-f076-4d7e-a0ec-66804bc31f89.h5'
p75
aS'/home/harrigan/projects/msmaccelerator2.villin/project/trajs/e43be296-7f8f-47b3-a5a0-036ca1645a7a.h5'
p76
aS'/home/harrigan/projects/msmaccelerator2.villin/project/trajs/386b4041-266c-4e75-9edf-1ce6784a31cf.h5'
p77
aS'/home/harrigan/projects/msmaccelerator2.villin/project/trajs/9d9bb2d5-61ff-4150-bc0e-a094c022f2a3.h5'
p78
aS'/home/harrigan/projects/msmaccelerator2.villin/project/trajs/1cef6b7e-d7b5-45a7-a4ff-a366f244c973.h5'
p79
aS'/home/harrigan/projects/msmaccelerator2.villin/project/trajs/82a82e27-af2d-46b5-81eb-5586abe9d384.h5'
p80
aS'/home/harrigan/projects/msmaccelerator2.villin/project/trajs/8f9f7d90-5f11-4395-a8e4-1158090f2fd8.h5'
p81
aS'/home/harrigan/projects/msmaccelerator2.villin/project/trajs/93b159d5-c9ed-4259-b074-6b96803dd648.h5'
p82
aS'/home/harrigan/projects/msmaccelerator2.villin/project/trajs/e049181b-4cc5-4e9d-a6a6-ee5f99647c53.h5'
p83
aS'/home/harrigan/projects/msmaccelerator2.villin/project/trajs/9a85c1dc-069a-4819-9a2c-90596cbda489.h5'
p84
aS'/home/harrigan/projects/msmaccelerator2.villin/project/trajs/c986d9b7-4056-4c75-9480-13c5504661b3.h5'
p85
aS'/home/harrigan/projects/msmaccelerator2.villin/project/trajs/0fba24e2-039b-4d70-8bca-59ad55286ede.h5'
p86
aS'/home/harrigan/projects/msmaccelerator2.villin/project/trajs/aa2ed65c-f6f9-46c4-bf1b-46d8c7305ece.h5'
p87
aS'/home/harrigan/projects/msmaccelerator2.villin/project/trajs/8b6b03b9-de65-48bc-94a4-06631b36ba21.h5'
p88
aS'/home/harrigan/projects/msmaccelerator2.villin/project/trajs/d46b8c7d-4038-42c6-8c73-a572af514f98.h5'
p89
aS'/home/harrigan/projects/msmaccelerator2.villin/project/trajs/9973ee12-ca1d-4802-97e0-5cf8c381258b.h5'
p90
aS'/home/harrigan/projects/msmaccelerator2.villin/project/trajs/e3cbbbd8-a257-4627-99a2-706ab6a2cbdc.h5'
p91
aS'/home/harrigan/projects/msmaccelerator2.villin/project/trajs/95b689a3-79c4-4d00-9f3f-58fed28783a8.h5'
p92
aS'/home/harrigan/projects/msmaccelerator2.villin/project/trajs/7f14971a-ecf2-4327-8399-1887b6faa0e5.h5'
p93
aS'/home/harrigan/projects/msmaccelerator2.villin/project/trajs/90523e0c-256e-40fd-b054-ad14305aee94.h5'
p94
aS'/home/harrigan/projects/msmaccelerator2.villin/project/trajs/31b1d152-d999-4ed5-b663-7bf9c45e6fa5.h5'
p95
aS'/home/harrigan/projects/msmaccelerator2.villin/project/trajs/0d3f6f08-d07c-415f-a580-23cb04ae656c.h5'
p96
aS'/home/harrigan/projects/msmaccelerator2.villin/project/trajs/ed450dee-0b69-417a-84ef-2a241d19b476.h5'
p97
aS'/home/harrigan/projects/msmaccelerator2.villin/project/trajs/af6776cf-8d4e-429b-8f46-6213405beebb.h5'
p98
aS'/home/harrigan/projects/msmaccelerator2.villin/project/trajs/5f307295-d24b-4134-b97d-e250d65538b6.h5'
p99
aS'/home/harrigan/projects/msmaccelerator2.villin/project/trajs/8ac3425b-4549-416b-9ce9-9f174fa7e4fd.h5'
p100
aS'/home/harrigan/projects/msmaccelerator2.villin/project/trajs/417b50ae-85e3-4316-9ebb-6123dfcc3afc.h5'
p101
aS'/home/harrigan/projects/msmaccelerator2.villin/project/trajs/57a1459f-9a68-4892-aed1-77f99e232b8f.h5'
p102
aS'/home/harrigan/projects/msmaccelerator2.villin/project/trajs/bda4c1a4-b4dd-4c18-982b-303b704e9e3a.h5'
p103
aS'/home/harrigan/projects/msmaccelerator2.villin/project/trajs/177d3a42-e796-4fef-b94f-3d7bb6e6ce48.h5'
p104
aS'/home/harrigan/projects/msmaccelerator2.villin/project/trajs/e370ee63-9577-444b-99b0-3e53deed9ada.h5'
p105
aS'/home/harrigan/projects/msmaccelerator2.villin/project/trajs/58685cc2-9e74-424e-8e20-8d70f2b6f084.h5'
p106
aS'/home/harrigan/projects/msmaccelerator2.villin/project/trajs/08091226-43ee-4f15-af67-ffcf270536a6.h5'
p107
aS'/home/harrigan/projects/msmaccelerator2.villin/project/trajs/1907bb47-10f7-41a2-9fb4-bcd64cb0621c.h5'
p108
aS'/home/harrigan/projects/msmaccelerator2.villin/project/trajs/1a1fb7d1-9559-4d6d-a8b9-7e1589a92880.h5'
p109
aS'/home/harrigan/projects/msmaccelerator2.villin/project/trajs/130f08db-df8a-406f-aeea-a1b61d656ea3.h5'
p110
aS'/home/harrigan/projects/msmaccelerator2.villin/project/trajs/79b4bfa7-c8a6-4894-b47d-3c32bab99547.h5'
p111
aS'/home/harrigan/projects/msmaccelerator2.villin/project/trajs/ea033ce9-eed9-49a2-b523-515b7c66b711.h5'
p112
aS'/home/harrigan/projects/msmaccelerator2.villin/project/trajs/52d5548f-c5a5-45c1-9ae6-54cd8f05ee82.h5'
p113
aS'/home/harrigan/projects/msmaccelerator2.villin/project/trajs/48b33c3c-6dee-49d0-8e2f-23529ead0cbc.h5'
p114
aS'/home/harrigan/projects/msmaccelerator2.villin/project/trajs/2fcdd991-7d76-43b6-963f-09e1e12d8c3a.h5'
p115
aS'/home/harrigan/projects/msmaccelerator2.villin/project/trajs/8aa1b8be-a019-42b2-84d3-8b96b0652f69.h5'
p116
aS'/home/harrigan/projects/msmaccelerator2.villin/project/trajs/a5ceac44-ab94-4ac6-b335-df1ec92e7598.h5'
p117
aS'/home/harrigan/projects/msmaccelerator2.villin/project/trajs/64e5582c-eda8-4bbf-8f5b-80225d2f5257.h5'
p118
aS'/home/harrigan/projects/msmaccelerator2.villin/project/trajs/56b6ec1a-0394-4363-a1c8-78d155364fd9.h5'
p119
aS'/home/harrigan/projects/msmaccelerator2.villin/project/trajs/92190d95-a496-4b26-b83d-cb04de59a7e6.h5'
p120
aS'/home/harrigan/projects/msmaccelerator2.villin/project/trajs/a40abf9f-654f-4423-892b-c259e961930d.h5'
p121
aS'/home/harrigan/projects/msmaccelerator2.villin/project/trajs/ae1d63a3-0098-4ae7-b472-b5366cf026b7.h5'
p122
aS'/home/harrigan/projects/msmaccelerator2.villin/project/trajs/fe736d67-719d-4a4f-81aa-b7b2d132df79.h5'
p123
aS'/home/harrigan/projects/msmaccelerator2.villin/project/trajs/6ef9b4eb-4c06-4c25-9b7e-34481172ba6b.h5'
p124
aS'/home/harrigan/projects/msmaccelerator2.villin/project/trajs/9d891fc0-a626-4e5d-92be-3d80996018f1.h5'
p125
aS'/home/harrigan/projects/msmaccelerator2.villin/project/trajs/83d45d77-24d2-4381-bac2-304eb1cff37d.h5'
p126
aS'/home/harrigan/projects/msmaccelerator2.villin/project/trajs/a579ce00-f480-4a5e-a57f-8c5a564a74e8.h5'
p127
aS'/home/harrigan/projects/msmaccelerator2.villin/project/trajs/df4642f6-7a20-440a-b6ff-ce0339776189.h5'
p128
aS'/home/harrigan/projects/msmaccelerator2.villin/project/trajs/b8e2ed47-64ae-4170-a3df-2555611966ab.h5'
p129
aS'/home/harrigan/projects/msmaccelerator2.villin/project/trajs/a141df57-7edb-42db-8bb1-e882b73e17c5.h5'
p130
aS'/home/harrigan/projects/msmaccelerator2.villin/project/trajs/bd264732-29e3-40eb-8fc5-5d15dcf2b271.h5'
p131
aS'/home/harrigan/projects/msmaccelerator2.villin/project/trajs/dc82d22b-ee97-4f4c-b4f8-59b9d93189aa.h5'
p132
aS'/home/harrigan/projects/msmaccelerator2.villin/project/trajs/b319228f-3739-4d13-8464-019ef025047f.h5'
p133
aS'/home/harrigan/projects/msmaccelerator2.villin/project/trajs/71ca2701-fb39-4784-884d-2d5e4d4d0fb2.h5'
p134
aS'/home/harrigan/projects/msmaccelerator2.villin/project/trajs/94f1faef-b58e-4a45-a64d-5c00b370628e.h5'
p135
aS'/home/harrigan/projects/msmaccelerator2.villin/project/trajs/cee11050-59e3-4d67-b777-5341beee44f4.h5'
p136
aS'/home/harrigan/projects/msmaccelerator2.villin/project/trajs/ccb60d9b-20fd-4e05-8632-f8c34b8c2766.h5'
p137
aS'/home/harrigan/projects/msmaccelerator2.villin/project/trajs/3796d369-015c-4cdf-92ce-e7f1702b1726.h5'
p138
aS'/home/harrigan/projects/msmaccelerator2.villin/project/trajs/e4da1b08-68a1-4d73-b807-34a826ebc0b0.h5'
p139
aS'/home/harrigan/projects/msmaccelerator2.villin/project/trajs/d96a7096-52af-4cc3-bdf4-33557a0b55fd.h5'
p140
aS'/home/harrigan/projects/msmaccelerator2.villin/project/trajs/1c8a0a11-566d-406d-a426-83e6280b9a2a.h5'
p141
aS'/home/harrigan/projects/msmaccelerator2.villin/project/trajs/31554b9a-8cd9-4d83-87f3-ea5c1c458d0a.h5'
p142
aS'/home/harrigan/projects/msmaccelerator2.villin/project/trajs/06ab7f50-ae39-42e2-a021-b5ea526cdc87.h5'
p143
aS'/home/harrigan/projects/msmaccelerator2.villin/project/trajs/255caec9-3949-4790-aee1-c2e89fe3a3fa.h5'
p144
aS'/home/harrigan/projects/msmaccelerator2.villin/project/trajs/d9b8a282-a1e0-44d2-85a0-66c519eaf282.h5'
p145
aS'/home/harrigan/projects/msmaccelerator2.villin/project/trajs/84e62bb5-950b-4ba8-8ecf-6bfa41863c78.h5'
p146
aS'/home/harrigan/projects/msmaccelerator2.villin/project/trajs/95db1948-4363-4e69-b0ff-b06f96bb0186.h5'
p147
aS'/home/harrigan/projects/msmaccelerator2.villin/project/trajs/96876714-35d9-41e1-bd35-d7fc2419aa56.h5'
p148
aS'/home/harrigan/projects/msmaccelerator2.villin/project/trajs/ba81ea87-281c-4131-bf8d-4caa823326b7.h5'
p149
aS'/home/harrigan/projects/msmaccelerator2.villin/project/trajs/2dc65aec-cd30-4f52-93a0-c1c94e751ad8.h5'
p150
aS'/home/harrigan/projects/msmaccelerator2.villin/project/trajs/757fbfcf-0425-4b71-aed2-f20d5a7b250c.h5'
p151
aS'/home/harrigan/projects/msmaccelerator2.villin/project/trajs/79d431ab-648a-47ec-b8c1-deb6ad52481f.h5'
p152
aS'/home/harrigan/projects/msmaccelerator2.villin/project/trajs/1ce4ef4a-b7e2-45b1-9df4-38c0be8fbabe.h5'
p153
aS'/home/harrigan/projects/msmaccelerator2.villin/project/trajs/28fcb216-f1f1-4958-b3c7-7caacef54809.h5'
p154
aS'/home/harrigan/projects/msmaccelerator2.villin/project/trajs/be8f3499-22f2-419c-845b-aae7c7319253.h5'
p155
aS'/home/harrigan/projects/msmaccelerator2.villin/project/trajs/99393f4d-3a0d-4135-b197-61b5d35e68a1.h5'
p156
aS'/home/harrigan/projects/msmaccelerator2.villin/project/trajs/41e27131-2ca5-4f96-a059-747217bc02c6.h5'
p157
aS'/home/harrigan/projects/msmaccelerator2.villin/project/trajs/876c4d58-9794-490d-9af1-6cb4ebfb2bca.h5'
p158
aS'/home/harrigan/projects/msmaccelerator2.villin/project/trajs/fd592c4c-d49b-4f74-871e-e13d5a0618b3.h5'
p159
aS'/home/harrigan/projects/msmaccelerator2.villin/project/trajs/6486d59d-9d51-4b4b-a59d-df9bdfbae797.h5'
p160
aS'/home/harrigan/projects/msmaccelerator2.villin/project/trajs/b24fdb03-035d-4d4d-897e-bd5bb3caacef.h5'
p161
aS'/home/harrigan/projects/msmaccelerator2.villin/project/trajs/c38929e0-6fe8-46ae-b041-ca3363bc7fa2.h5'
p162
aS'/home/harrigan/projects/msmaccelerator2.villin/project/trajs/75e231cd-3f28-4d33-b257-2efc2aad23f4.h5'
p163
aS'/home/harrigan/projects/msmaccelerator2.villin/project/trajs/0a9459da-0c9e-48d8-81cb-a3a9472abff8.h5'
p164
aS'/home/harrigan/projects/msmaccelerator2.villin/project/trajs/76cc3caa-5f3f-47c1-bfe6-d1014fed96ba.h5'
p165
aS'/home/harrigan/projects/msmaccelerator2.villin/project/trajs/0d9f8834-f5c3-42be-acc0-5a0149f70987.h5'
p166
aS'/home/harrigan/projects/msmaccelerator2.villin/project/trajs/f2ab5092-25ec-4188-8f0f-9be5fa9769b3.h5'
p167
aS'/home/harrigan/projects/msmaccelerator2.villin/project/trajs/b779aa07-61a0-4b24-a528-05fa803f5f42.h5'
p168
aS'/home/harrigan/projects/msmaccelerator2.villin/project/trajs/fa162261-d3fa-4d15-b1c4-be03f776f6e4.h5'
p169
aS'/home/harrigan/projects/msmaccelerator2.villin/project/trajs/44cacedf-2dfa-4603-919c-1642ac4b21f2.h5'
p170
aS'/home/harrigan/projects/msmaccelerator2.villin/project/trajs/28c258ea-a0cc-469b-97a4-b23c6f713d1d.h5'
p171
aS'/home/harrigan/projects/msmaccelerator2.villin/project/trajs/f133dadc-dc99-4a9f-b001-a750125b51dd.h5'
p172
aS'/home/harrigan/projects/msmaccelerator2.villin/project/trajs/0de116dc-4285-40ff-acb8-15d15e4fd753.h5'
p173
aS'/home/harrigan/projects/msmaccelerator2.villin/project/trajs/92ccf61f-f723-46df-b4bf-c8a5c7ae7c54.h5'
p174
aS'/home/harrigan/projects/msmaccelerator2.villin/project/trajs/12898a61-3ef8-4958-9f04-1f74fb73a35d.h5'
p175
aS'/home/harrigan/projects/msmaccelerator2.villin/project/trajs/c05472b2-f59d-4587-be3b-a2d317deaea3.h5'
p176
aS'/home/harrigan/projects/msmaccelerator2.villin/project/trajs/cb629383-6817-4098-9b70-d3cd34fc3fcc.h5'
p177
aS'/home/harrigan/projects/msmaccelerator2.villin/project/trajs/69b37b3d-e1d4-4e27-988c-5251b9d0f57d.h5'
p178
aS'/home/harrigan/projects/msmaccelerator2.villin/project/trajs/3f54176b-b56d-47cd-9858-ec9de13459c9.h5'
p179
aS'/home/harrigan/projects/msmaccelerator2.villin/project/trajs/08a62af3-cb71-49e6-b11a-1104c0f25893.h5'
p180
aS'/home/harrigan/projects/msmaccelerator2.villin/project/trajs/eb0b238f-92ac-454c-acbe-968a03c09ed5.h5'
p181
aS'/home/harrigan/projects/msmaccelerator2.villin/project/trajs/a1b178e2-2bb5-47ba-8f2d-01bdc3d34920.h5'
p182
aS'/home/harrigan/projects/msmaccelerator2.villin/project/trajs/c624dc86-068d-4ab9-ae81-efc96b33da80.h5'
p183
aS'/home/harrigan/projects/msmaccelerator2.villin/project/trajs/4908d335-b689-4400-88ce-4d96f0ba6e0c.h5'
p184
aS'/home/harrigan/projects/msmaccelerator2.villin/project/trajs/36ab0b48-bac1-48e7-b77c-01a0d66b1335.h5'
p185
aS'/home/harrigan/projects/msmaccelerator2.villin/project/trajs/e7c5cb2a-e80a-4d48-874b-be67ccac4bda.h5'
p186
aS'/home/harrigan/projects/msmaccelerator2.villin/project/trajs/dd79a6c1-c0c0-49bc-bf33-00ca4efdad03.h5'
p187
aS'/home/harrigan/projects/msmaccelerator2.villin/project/trajs/74015c38-6aa9-420d-92ed-eb9b6fb5b2e5.h5'
p188
aS'/home/harrigan/projects/msmaccelerator2.villin/project/trajs/597eea12-9e41-47f4-8888-b95e06aa3e2b.h5'
p189
aS'/home/harrigan/projects/msmaccelerator2.villin/project/trajs/13af36a1-7fd7-4678-8515-a542b532bd95.h5'
p190
aS'/home/harrigan/projects/msmaccelerator2.villin/project/trajs/88a7455d-4859-41be-99b3-af66a310d857.h5'
p191
aS'/home/harrigan/projects/msmaccelerator2.villin/project/trajs/f1dd2cb9-4ce4-4a05-a58e-7564524d49d5.h5'
p192
aS'/home/harrigan/projects/msmaccelerator2.villin/project/trajs/dee295e6-3b80-4083-8dd3-e8b24c458614.h5'
p193
aS'/home/harrigan/projects/msmaccelerator2.villin/project/trajs/57f2172d-5474-46ed-bcf6-2822aa82d05e.h5'
p194
aS'/home/harrigan/projects/msmaccelerator2.villin/project/trajs/74ec53ad-1e4b-45ae-8348-f01a18d848e6.h5'
p195
aS'/home/harrigan/projects/msmaccelerator2.villin/project/trajs/2213fd8b-9b25-4160-9134-cf3f45d99770.h5'
p196
aS'/home/harrigan/projects/msmaccelerator2.villin/project/trajs/e6f60b3d-71f6-4bde-ae4d-470b8e9f92c5.h5'
p197
aS'/home/harrigan/projects/msmaccelerator2.villin/project/trajs/92370c7d-ab7b-4e10-9001-674701e8e185.h5'
p198
aS'/home/harrigan/projects/msmaccelerator2.villin/project/trajs/8c8ff4e6-2a49-4674-ad1f-6d0ee0e08833.h5'
p199
aS'/home/harrigan/projects/msmaccelerator2.villin/project/trajs/2925f667-d24f-4f11-bbcc-fb72fa702ddc.h5'
p200
aS'/home/harrigan/projects/msmaccelerator2.villin/project/trajs/5d275ce3-5619-4a72-88ee-2f7e72a8b7fd.h5'
p201
aS'/home/harrigan/projects/msmaccelerator2.villin/project/trajs/c5ca6332-4e95-47fa-824a-9abe20131e22.h5'
p202
aS'/home/harrigan/projects/msmaccelerator2.villin/project/trajs/21df6027-174a-4cef-84a4-29b3c5482e82.h5'
p203
aS'/home/harrigan/projects/msmaccelerator2.villin/project/trajs/a1edcc73-f2cb-4b30-be86-cb6f90d46ba7.h5'
p204
aS'/home/harrigan/projects/msmaccelerator2.villin/project/trajs/099213ce-b5b4-4f6d-ab42-2e96fc3f6ff7.h5'
p205
aS'/home/harrigan/projects/msmaccelerator2.villin/project/trajs/9eea2234-5353-44c8-85b6-4f3d80b9dcfc.h5'
p206
aS'/home/harrigan/projects/msmaccelerator2.villin/project/trajs/ba92a2d4-3521-40aa-8c85-4313295b15e8.h5'
p207
aS'/home/harrigan/projects/msmaccelerator2.villin/project/trajs/509845f4-b287-4ddd-9dd9-910cf8894f82.h5'
p208
aS'/home/harrigan/projects/msmaccelerator2.villin/project/trajs/6f9ea114-5dea-40e1-8b56-12250727bd93.h5'
p209
aS'/home/harrigan/projects/msmaccelerator2.villin/project/trajs/bdc3d9c5-652c-4c6c-a430-a87c48839fbc.h5'
p210
aS'/home/harrigan/projects/msmaccelerator2.villin/project/trajs/0a304061-05fb-44fc-8f48-f50bbbcf38b1.h5'
p211
aS'/home/harrigan/projects/msmaccelerator2.villin/project/trajs/c533a57f-18e4-4901-85a4-58740c438220.h5'
p212
aS'/home/harrigan/projects/msmaccelerator2.villin/project/trajs/13fc07ea-8342-4fac-886a-594cc81e46ff.h5'
p213
aS'/home/harrigan/projects/msmaccelerator2.villin/project/trajs/a715e6ba-1b59-4539-9947-315b280717ef.h5'
p214
aS'/home/harrigan/projects/msmaccelerator2.villin/project/trajs/cba64ef5-7f40-446f-a051-886d62945242.h5'
p215
aS'/home/harrigan/projects/msmaccelerator2.villin/project/trajs/85de1674-d5e8-4cbf-83a6-64c05a883533.h5'
p216
aS'/home/harrigan/projects/msmaccelerator2.villin/project/trajs/2304d4cc-de19-439e-845d-da282c9eaca7.h5'
p217
aS'/home/harrigan/projects/msmaccelerator2.villin/project/trajs/d506f0c3-e7ca-4611-8718-f7e8cf7e7ebe.h5'
p218
aS'/home/harrigan/projects/msmaccelerator2.villin/project/trajs/22b86eae-50ae-4caf-831a-c2c0fc244d60.h5'
p219
aS'/home/harrigan/projects/msmaccelerator2.villin/project/trajs/de14a8ba-ff8f-4438-8fc8-42b4b4f9de5f.h5'
p220
aS'/home/harrigan/projects/msmaccelerator2.villin/project/trajs/acc02afc-41d3-473d-838c-8c27c1021c4f.h5'
p221
aS'/home/harrigan/projects/msmaccelerator2.villin/project/trajs/9e4aacf7-c3df-4cfd-b1c3-d18b326a399a.h5'
p222
aS'/home/harrigan/projects/msmaccelerator2.villin/project/trajs/e5d48f5f-f883-4b04-b015-13e6cf54480a.h5'
p223
aS'/home/harrigan/projects/msmaccelerator2.villin/project/trajs/61ba5966-f4fa-45c8-b8d7-02cd03986ce9.h5'
p224
aS'/home/harrigan/projects/msmaccelerator2.villin/project/trajs/2582b3c1-d964-4b6b-bdcf-db9e2df67f21.h5'
p225
aS'/home/harrigan/projects/msmaccelerator2.villin/project/trajs/2cf1b40b-6a58-47d6-b324-359233ec0e9e.h5'
p226
aS'/home/harrigan/projects/msmaccelerator2.villin/project/trajs/a2adac5d-2616-4e1d-950b-74d9fa992aad.h5'
p227
aS'/home/harrigan/projects/msmaccelerator2.villin/project/trajs/603965a3-4e35-4911-9141-2918e526c5e3.h5'
p228
aS'/home/harrigan/projects/msmaccelerator2.villin/project/trajs/633e0761-e3f8-4c00-a205-91bae15000ed.h5'
p229
aS'/home/harrigan/projects/msmaccelerator2.villin/project/trajs/51312d4e-44ed-4015-ac0b-d7bafb2df6e9.h5'
p230
aS'/home/harrigan/projects/msmaccelerator2.villin/project/trajs/f21e215d-2544-4674-bf26-c7cf0ee9ef49.h5'
p231
aS'/home/harrigan/projects/msmaccelerator2.villin/project/trajs/71599467-22c6-4101-8251-d6d2f5353766.h5'
p232
aS'/home/harrigan/projects/msmaccelerator2.villin/project/trajs/29b1304b-1975-4c53-bde2-3907463a4a3c.h5'
p233
aS'/home/harrigan/projects/msmaccelerator2.villin/project/trajs/6557a20c-e0e9-41f5-b1e8-74c6c6ff3d5a.h5'
p234
aS'/home/harrigan/projects/msmaccelerator2.villin/project/trajs/9a2f6b94-737f-45bb-91c2-730e3a8e4e38.h5'
p235
aS'/home/harrigan/projects/msmaccelerator2.villin/project/trajs/694b706f-5af5-43d8-8c4f-845fa7ad830f.h5'
p236
aS'/home/harrigan/projects/msmaccelerator2.villin/project/trajs/2e32bc78-17ca-4a38-8a53-bad65562be63.h5'
p237
aS'/home/harrigan/projects/msmaccelerator2.villin/project/trajs/2de01ca5-e19b-4afe-adf2-4dc6f9da09d5.h5'
p238
aS'/home/harrigan/projects/msmaccelerator2.villin/project/trajs/34c4ea59-5108-4dec-9bcf-2bd146e9d3ff.h5'
p239
aS'/home/harrigan/projects/msmaccelerator2.villin/project/trajs/9d383930-1f8a-40ea-af1a-474832c43de8.h5'
p240
aS'/home/harrigan/projects/msmaccelerator2.villin/project/trajs/a071b7b3-270d-46f1-b460-79e1e5530246.h5'
p241
aS'/home/harrigan/projects/msmaccelerator2.villin/project/trajs/474f6f56-13da-48c3-bab6-3bb657bd9173.h5'
p242
aS'/home/harrigan/projects/msmaccelerator2.villin/project/trajs/39b0df6a-cb9f-4062-8738-cc05e62cbe92.h5'
p243
aS'/home/harrigan/projects/msmaccelerator2.villin/project/trajs/da38b2c8-75c3-4471-b553-3d5f4a61ec1e.h5'
p244
aS'/home/harrigan/projects/msmaccelerator2.villin/project/trajs/0b75f3e8-645b-4cd8-95b4-7a4001f27a53.h5'
p245
aS'/home/harrigan/projects/msmaccelerator2.villin/project/trajs/3e66dc26-0b76-4c20-b355-5b9279887ab5.h5'
p246
aS'/home/harrigan/projects/msmaccelerator2.villin/project/trajs/fad8424e-e1d1-45af-a8c8-8515b048e3ec.h5'
p247
aS'/home/harrigan/projects/msmaccelerator2.villin/project/trajs/3a5933b1-092e-4129-81c0-d09df4b71cf4.h5'
p248
aS'/home/harrigan/projects/msmaccelerator2.villin/project/trajs/38b53ffd-fb83-4d5f-9cba-d53bf0ab3c74.h5'
p249
aS'/home/harrigan/projects/msmaccelerator2.villin/project/trajs/d6887116-3425-4710-88f4-e6416862cc92.h5'
p250
aS'/home/harrigan/projects/msmaccelerator2.villin/project/trajs/1ff34d9a-cb40-4fd2-a8e1-77397c78b8f3.h5'
p251
aS'/home/harrigan/projects/msmaccelerator2.villin/project/trajs/21e6c18e-be89-43bb-9242-2170a5365681.h5'
p252
aS'/home/harrigan/projects/msmaccelerator2.villin/project/trajs/ec367c18-e74d-413a-8120-f4f6b28d3f95.h5'
p253
aS'/home/harrigan/projects/msmaccelerator2.villin/project/trajs/8aeb6474-c05e-41ee-94b3-700fbddd88f4.h5'
p254
aS'/home/harrigan/projects/msmaccelerator2.villin/project/trajs/ddf59e6b-f621-432e-8e68-a6ebc22f0c15.h5'
p255
aS'/home/harrigan/projects/msmaccelerator2.villin/project/trajs/a04dc499-088f-48a1-b16d-89d278010892.h5'
p256
aS'/home/harrigan/projects/msmaccelerator2.villin/project/trajs/1162f7b2-802f-4240-9f66-2afa4dd65e87.h5'
p257
aS'/home/harrigan/projects/msmaccelerator2.villin/project/trajs/c597042f-400d-4c21-a19f-1c9011c66ba7.h5'
p258
aS'/home/harrigan/projects/msmaccelerator2.villin/project/trajs/701b3315-f65f-4ea5-8025-4003f0ac36d5.h5'
p259
aS'/home/harrigan/projects/msmaccelerator2.villin/project/trajs/b2e46d8b-7bbe-4506-a5e6-7adf73c6d18b.h5'
p260
aS'/home/harrigan/projects/msmaccelerator2.villin/project/trajs/386795da-bfa6-47a0-94b1-3d367fb90c1b.h5'
p261
aS'/home/harrigan/projects/msmaccelerator2.villin/project/trajs/8a9f687f-4e9a-4336-b256-937ee6a3af47.h5'
p262
aS'/home/harrigan/projects/msmaccelerator2.villin/project/trajs/42a85677-4d7a-414a-a4be-2e9b17077f4f.h5'
p263
aS'/home/harrigan/projects/msmaccelerator2.villin/project/trajs/63507c79-47ee-4e9c-9d9e-f8804c78e35a.h5'
p264
aS'/home/harrigan/projects/msmaccelerator2.villin/project/trajs/48a9e8f8-34c3-4910-a40e-737b8050ebd8.h5'
p265
aS'/home/harrigan/projects/msmaccelerator2.villin/project/trajs/77b1586b-2c51-4609-9f9b-b0a81d469354.h5'
p266
aS'/home/harrigan/projects/msmaccelerator2.villin/project/trajs/09059140-a23e-4426-a355-25ec70a0a301.h5'
p267
aS'/home/harrigan/projects/msmaccelerator2.villin/project/trajs/257636aa-7659-4ff3-b596-80abe2da6b15.h5'
p268
aS'/home/harrigan/projects/msmaccelerator2.villin/project/trajs/3f921fac-1a6f-426a-9c7b-824455da1e5c.h5'
p269
aS'/home/harrigan/projects/msmaccelerator2.villin/project/trajs/56314ef3-6f4d-4dcb-a47d-7ae6a07863ef.h5'
p270
aS'/home/harrigan/projects/msmaccelerator2.villin/project/trajs/1470f571-a6bd-48e0-8b31-7d43c8b57743.h5'
p271
aS'/home/harrigan/projects/msmaccelerator2.villin/project/trajs/e9935fed-8a30-44c9-8afa-565f88f6b986.h5'
p272
aS'/home/harrigan/projects/msmaccelerator2.villin/project/trajs/c01e9fb6-86a2-4e5e-a4a8-57b4c72b9034.h5'
p273
aS'/home/harrigan/projects/msmaccelerator2.villin/project/trajs/dedd588a-b8fa-4280-988c-a67e4fa170a6.h5'
p274
aS'/home/harrigan/projects/msmaccelerator2.villin/project/trajs/9b9b8eda-ff9f-4e50-b682-2c27fd6b924a.h5'
p275
aS'/home/harrigan/projects/msmaccelerator2.villin/project/trajs/b4764580-d08f-41bd-bb80-922a93ddc7d0.h5'
p276
aS'/home/harrigan/projects/msmaccelerator2.villin/project/trajs/e399159a-2ea7-4495-8f38-6d92fbd5e622.h5'
p277
aS'/home/harrigan/projects/msmaccelerator2.villin/project/trajs/0e9fdfbf-c27b-4e24-adac-c52adb7cb0fc.h5'
p278
aS'/home/harrigan/projects/msmaccelerator2.villin/project/trajs/3a4f7ef4-64c1-4f89-8733-43a8077e838c.h5'
p279
aS'/home/harrigan/projects/msmaccelerator2.villin/project/trajs/3a261496-6fc2-4613-b3dc-c93f08619006.h5'
p280
aS'/home/harrigan/projects/msmaccelerator2.villin/project/trajs/5565b9e5-35a7-44b1-806f-c36c8acbaa94.h5'
p281
aS'/home/harrigan/projects/msmaccelerator2.villin/project/trajs/bc182557-f407-4e43-9f26-3cf36f144a98.h5'
p282
aS'/home/harrigan/projects/msmaccelerator2.villin/project/trajs/a53f139c-7408-4593-9931-5093198da52e.h5'
p283
aS'/home/harrigan/projects/msmaccelerator2.villin/project/trajs/b67230c1-31c5-46ee-88b3-154e24f42489.h5'
p284
aS'/home/harrigan/projects/msmaccelerator2.villin/project/trajs/258ac737-66c3-4cb3-9921-c62e78a9c7ab.h5'
p285
aS'/home/harrigan/projects/msmaccelerator2.villin/project/trajs/32cc0d9f-998e-46ff-b712-9395540e8cd5.h5'
p286
aS'/home/harrigan/projects/msmaccelerator2.villin/project/trajs/01701494-71a2-4582-998f-572438d3497b.h5'
p287
aS'/home/harrigan/projects/msmaccelerator2.villin/project/trajs/667dba37-bb19-45b3-8596-562e9190d8f6.h5'
p288
aS'/home/harrigan/projects/msmaccelerator2.villin/project/trajs/5d228774-7a2c-4543-8e67-74f9493fca4b.h5'
p289
aS'/home/harrigan/projects/msmaccelerator2.villin/project/trajs/19ab1c29-0fba-4fc5-ab0b-5f84c0723c43.h5'
p290
aS'/home/harrigan/projects/msmaccelerator2.villin/project/trajs/e8000598-1913-4474-a180-04dbc26c5170.h5'
p291
aS'/home/harrigan/projects/msmaccelerator2.villin/project/trajs/23d1e3da-d856-4e11-89e4-200c6ee18cea.h5'
p292
aS'/home/harrigan/projects/msmaccelerator2.villin/project/trajs/93889c3f-385b-4adb-ae1e-0b2080c61544.h5'
p293
aS'/home/harrigan/projects/msmaccelerator2.villin/project/trajs/af044c83-10c9-4dbb-96b0-bb08dd059bf0.h5'
p294
aS'/home/harrigan/projects/msmaccelerator2.villin/project/trajs/5f104ebd-6a6d-4f4d-9dbe-a52132e35ffe.h5'
p295
aS'/home/harrigan/projects/msmaccelerator2.villin/project/trajs/9300d647-0311-4937-8511-8a0ac3ed2d6e.h5'
p296
aS'/home/harrigan/projects/msmaccelerator2.villin/project/trajs/d84deba7-07d0-4381-94d3-662eb9f838a8.h5'
p297
aS'/home/harrigan/projects/msmaccelerator2.villin/project/trajs/2b0c47f1-5094-49af-b174-b4aca4ad7698.h5'
p298
aS'/home/harrigan/projects/msmaccelerator2.villin/project/trajs/8f02db31-77d5-4d6f-85e2-dfc2e56249ef.h5'
p299
aS'/home/harrigan/projects/msmaccelerator2.villin/project/trajs/1dea1a4d-92d0-4b69-bfd2-ec8f4b1b581e.h5'
p300
aS'/home/harrigan/projects/msmaccelerator2.villin/project/trajs/689535ab-d58a-409f-8e8c-5de9b7d4397d.h5'
p301
aS'/home/harrigan/projects/msmaccelerator2.villin/project/trajs/31b36044-bb90-4b50-964b-1dcbf521dab9.h5'
p302
aS'/home/harrigan/projects/msmaccelerator2.villin/project/trajs/7e1e6c3c-ce9a-4ab1-8d2f-b784a99e9891.h5'
p303
aS'/home/harrigan/projects/msmaccelerator2.villin/project/trajs/aa7ef752-e3dd-4f05-80ab-6edd25f250de.h5'
p304
aS'/home/harrigan/projects/msmaccelerator2.villin/project/trajs/8c21c8a9-bc34-497e-9aca-dd246690ebdf.h5'
p305
aS'/home/harrigan/projects/msmaccelerator2.villin/project/trajs/fe6cab85-735d-4cfc-b9f8-4090fd8288aa.h5'
p306
aS'/home/harrigan/projects/msmaccelerator2.villin/project/trajs/e73e206b-4c90-4546-b671-8d8c886f763f.h5'
p307
aS'/home/harrigan/projects/msmaccelerator2.villin/project/trajs/c456bc32-f1a2-400b-bde7-f46a84ecb53e.h5'
p308
aS'/home/harrigan/projects/msmaccelerator2.villin/project/trajs/1a5a0941-efaf-42b0-b68b-d55cbff55f05.h5'
p309
aS'/home/harrigan/projects/msmaccelerator2.villin/project/trajs/d75ea08e-e9be-4b94-b5e3-9967d466e8b6.h5'
p310
aS'/home/harrigan/projects/msmaccelerator2.villin/project/trajs/7dd8c925-f5a6-47e2-b590-caf0eebe783e.h5'
p311
aS'/home/harrigan/projects/msmaccelerator2.villin/project/trajs/0ab1f7eb-8c04-40d6-bd9e-7b0e119da2ad.h5'
p312
aS'/home/harrigan/projects/msmaccelerator2.villin/project/trajs/4c395170-d071-4749-b1f8-de0b97ef25e5.h5'
p313
aS'/home/harrigan/projects/msmaccelerator2.villin/project/trajs/7b0f90f2-e56e-432c-a127-6588f1f67dcb.h5'
p314
aS'/home/harrigan/projects/msmaccelerator2.villin/project/trajs/1538b00a-4cd3-4d81-84d4-0c15d34fc730.h5'
p315
aS'/home/harrigan/projects/msmaccelerator2.villin/project/trajs/3e2aa9df-a79b-4996-b191-3c78942f117f.h5'
p316
aS'/home/harrigan/projects/msmaccelerator2.villin/project/trajs/40b8d4fc-109f-495b-b937-cb67c3fe51e6.h5'
p317
aS'/home/harrigan/projects/msmaccelerator2.villin/project/trajs/f5e9f6ad-b7c3-4637-a4fb-26e340fb398d.h5'
p318
aS'/home/harrigan/projects/msmaccelerator2.villin/project/trajs/cd887c03-9a21-4fbd-adc1-2e86637ee75f.h5'
p319
aS'/home/harrigan/projects/msmaccelerator2.villin/project/trajs/a0f5ecef-7a64-46d4-bf2f-8f916b77a0f0.h5'
p320
aS'/home/harrigan/projects/msmaccelerator2.villin/project/trajs/07c062f8-1da4-4a5b-be8e-5bc6805ba837.h5'
p321
aS'/home/harrigan/projects/msmaccelerator2.villin/project/trajs/da062c51-ff73-4cc0-9cad-23dcf335806c.h5'
p322
aS'/home/harrigan/projects/msmaccelerator2.villin/project/trajs/227d7153-ec90-4b35-b178-c985e4c57665.h5'
p323
aS'/home/harrigan/projects/msmaccelerator2.villin/project/trajs/a5bddbbc-4e72-4bf2-b3ef-0978f60ac661.h5'
p324
aS'/home/harrigan/projects/msmaccelerator2.villin/project/trajs/827f3126-3717-4126-a258-af99ba7fd85d.h5'
p325
aS'/home/harrigan/projects/msmaccelerator2.villin/project/trajs/67695393-e506-44ab-a586-560fa0feef9d.h5'
p326
aS'/home/harrigan/projects/msmaccelerator2.villin/project/trajs/8508496d-fd69-41ed-83e7-ac65689f42dd.h5'
p327
aS'/home/harrigan/projects/msmaccelerator2.villin/project/trajs/04a5d858-06a2-412f-96f9-645cb5720386.h5'
p328
aS'/home/harrigan/projects/msmaccelerator2.villin/project/trajs/b2d0ad1f-adc6-44ce-a272-5567da288648.h5'
p329
aS'/home/harrigan/projects/msmaccelerator2.villin/project/trajs/038bde2e-07be-4f6d-9dc8-f630b0ae9720.h5'
p330
aS'/home/harrigan/projects/msmaccelerator2.villin/project/trajs/b41ca475-cca3-409c-9817-921296255d45.h5'
p331
aS'/home/harrigan/projects/msmaccelerator2.villin/project/trajs/6541a6b2-896a-4cf8-acb8-ca46dd53b447.h5'
p332
aS'/home/harrigan/projects/msmaccelerator2.villin/project/trajs/286bd5c3-bd8b-43d3-af79-562650600241.h5'
p333
aS'/home/harrigan/projects/msmaccelerator2.villin/project/trajs/ffa7390d-9eff-49ef-b30e-7b7c048cf076.h5'
p334
aS'/home/harrigan/projects/msmaccelerator2.villin/project/trajs/1f91a6c3-da4c-496c-932a-a7193e68a945.h5'
p335
aS'/home/harrigan/projects/msmaccelerator2.villin/project/trajs/4277a292-9831-418e-af61-8d1624ef1cdd.h5'
p336
aS'/home/harrigan/projects/msmaccelerator2.villin/project/trajs/56867881-e7df-4275-94c2-8284b99fca99.h5'
p337
aS'/home/harrigan/projects/msmaccelerator2.villin/project/trajs/aaac5d5b-8706-40b2-8380-1cd0603fed31.h5'
p338
aS'/home/harrigan/projects/msmaccelerator2.villin/project/trajs/2452f813-b69c-496d-a6e6-13458d6595bf.h5'
p339
aS'/home/harrigan/projects/msmaccelerator2.villin/project/trajs/868f8d1e-9fe5-442e-8478-592c7f272933.h5'
p340
aS'/home/harrigan/projects/msmaccelerator2.villin/project/trajs/60a62c1c-87fb-45d8-a3f7-4730d1dded50.h5'
p341
aS'/home/harrigan/projects/msmaccelerator2.villin/project/trajs/ef74954d-2f3d-405c-9113-e4e46e34bbd9.h5'
p342
aS'/home/harrigan/projects/msmaccelerator2.villin/project/trajs/3b77c490-a3be-4ab3-b76e-1686dbdc9ae5.h5'
p343
aS'/home/harrigan/projects/msmaccelerator2.villin/project/trajs/3f272d44-3fe3-495d-a579-cfe03e165c9d.h5'
p344
aS'/home/harrigan/projects/msmaccelerator2.villin/project/trajs/15ed8103-82a1-461f-a072-4b89eb1ae507.h5'
p345
aS'/home/harrigan/projects/msmaccelerator2.villin/project/trajs/ebddaf17-d80b-4c96-9b98-b034e585c7c1.h5'
p346
aS'/home/harrigan/projects/msmaccelerator2.villin/project/trajs/e71394c4-f4a5-4fb0-931f-cbf30b61f8a8.h5'
p347
aS'/home/harrigan/projects/msmaccelerator2.villin/project/trajs/7b06d34a-2d1e-4a4d-8dd4-6cb5110f79a7.h5'
p348
aS'/home/harrigan/projects/msmaccelerator2.villin/project/trajs/483719bb-dae4-4f5a-a701-cbbb1b38037d.h5'
p349
aS'/home/harrigan/projects/msmaccelerator2.villin/project/trajs/aa75eab2-1eee-4282-90b1-68f8bbb67172.h5'
p350
aS'/home/harrigan/projects/msmaccelerator2.villin/project/trajs/cc78f8ae-4f89-4592-b596-963b37949cf9.h5'
p351
aS'/home/harrigan/projects/msmaccelerator2.villin/project/trajs/2f8723d1-0041-4c61-8466-cbfda2f11a2c.h5'
p352
aS'/home/harrigan/projects/msmaccelerator2.villin/project/trajs/67a57b7a-b02f-4d0d-8d3c-9f2080927822.h5'
p353
aS'/home/harrigan/projects/msmaccelerator2.villin/project/trajs/5e197c1e-420f-458b-9ebd-4b7dfc43074d.h5'
p354
aS'/home/harrigan/projects/msmaccelerator2.villin/project/trajs/a52ebafa-388a-437a-a2d9-7a9a419e628b.h5'
p355
aS'/home/harrigan/projects/msmaccelerator2.villin/project/trajs/b9114a69-4dac-47ba-a638-b294ecbeb45f.h5'
p356
aS'/home/harrigan/projects/msmaccelerator2.villin/project/trajs/745c5c2a-4e6f-481a-88d9-5d3620fc770a.h5'
p357
aS'/home/harrigan/projects/msmaccelerator2.villin/project/trajs/0e09f999-979e-47e5-8197-ceea6ca01580.h5'
p358
aS'/home/harrigan/projects/msmaccelerator2.villin/project/trajs/4d75a574-2a22-433a-873d-6a8bd9db1791.h5'
p359
aS'/home/harrigan/projects/msmaccelerator2.villin/project/trajs/d0f40506-fa8b-441c-8431-389c95ef7b0f.h5'
p360
aS'/home/harrigan/projects/msmaccelerator2.villin/project/trajs/fbf4d58e-8a14-4f5a-990e-0bb33bb37d67.h5'
p361
aS'/home/harrigan/projects/msmaccelerator2.villin/project/trajs/4d3681d1-c437-4cf9-92f4-dc62e5618240.h5'
p362
aS'/home/harrigan/projects/msmaccelerator2.villin/project/trajs/1e390541-ad1d-4b86-9f23-c5f944889517.h5'
p363
aS'/home/harrigan/projects/msmaccelerator2.villin/project/trajs/d03f20ab-56ad-40b1-aea7-72f357893a66.h5'
p364
aS'/home/harrigan/projects/msmaccelerator2.villin/project/trajs/0ec773cd-d6eb-431a-866b-f672c0fea0f7.h5'
p365
aS'/home/harrigan/projects/msmaccelerator2.villin/project/trajs/a9ccc2b4-de17-4af8-89e7-bd38ac154faa.h5'
p366
aS'/home/harrigan/projects/msmaccelerator2.villin/project/trajs/7505f794-2bda-4905-9e70-06e34ec856dc.h5'
p367
aS'/home/harrigan/projects/msmaccelerator2.villin/project/trajs/4bd63a28-2284-4eb5-a911-c48b15fc2ac8.h5'
p368
aS'/home/harrigan/projects/msmaccelerator2.villin/project/trajs/a12e08ef-3004-434d-978d-2afd2478c7c9.h5'
p369
aS'/home/harrigan/projects/msmaccelerator2.villin/project/trajs/09b8263f-dc9e-4ff5-8d14-a0b24d8d409c.h5'
p370
aS'/home/harrigan/projects/msmaccelerator2.villin/project/trajs/47f2519b-7ad7-406d-b05d-3307662fc4cc.h5'
p371
aS'/home/harrigan/projects/msmaccelerator2.villin/project/trajs/e616c241-35a5-40dd-af7b-924319973ef6.h5'
p372
aS'/home/harrigan/projects/msmaccelerator2.villin/project/trajs/3070a122-fb86-4e69-9975-2b05915f84a1.h5'
p373
aS'/home/harrigan/projects/msmaccelerator2.villin/project/trajs/43efcbbf-17e2-4179-9a67-8a1dbb3f4627.h5'
p374
aS'/home/harrigan/projects/msmaccelerator2.villin/project/trajs/4e6ae4a6-0609-42cc-9355-cc0f5314bd46.h5'
p375
aS'/home/harrigan/projects/msmaccelerator2.villin/project/trajs/b0308020-6b6a-418b-a3f6-bb7f9ba6beaf.h5'
p376
aS'/home/harrigan/projects/msmaccelerator2.villin/project/trajs/9ef66d12-21b5-4ba0-a815-10c13f1700d4.h5'
p377
aS'/home/harrigan/projects/msmaccelerator2.villin/project/trajs/b599108f-b5f7-40c4-818e-b7b49001fb97.h5'
p378
aS'/home/harrigan/projects/msmaccelerator2.villin/project/trajs/5ae8b8bd-e28b-45b6-9e1c-010db14564be.h5'
p379
aS'/home/harrigan/projects/msmaccelerator2.villin/project/trajs/ebd97bc9-6636-4366-bcde-6a9f67428864.h5'
p380
aS'/home/harrigan/projects/msmaccelerator2.villin/project/trajs/81a4a32a-9242-42d1-93ed-7a5226168c71.h5'
p381
aS'/home/harrigan/projects/msmaccelerator2.villin/project/trajs/977487b1-1278-4f1a-ae30-d33bfc699d07.h5'
p382
aS'/home/harrigan/projects/msmaccelerator2.villin/project/trajs/769e93c8-7fdf-45ad-9231-7dc8ca9b7550.h5'
p383
aS'/home/harrigan/projects/msmaccelerator2.villin/project/trajs/7ffb5815-9f28-467b-bcbe-4a746eed0c45.h5'
p384
aS'/home/harrigan/projects/msmaccelerator2.villin/project/trajs/80b92b7d-2954-4b7e-b850-0fcc170907b2.h5'
p385
aS'/home/harrigan/projects/msmaccelerator2.villin/project/trajs/1530e8e4-10fc-42d0-b5a0-cd3aba350400.h5'
p386
aS'/home/harrigan/projects/msmaccelerator2.villin/project/trajs/a9f4474d-2121-486b-8f9c-dfcc55e4fe14.h5'
p387
aS'/home/harrigan/projects/msmaccelerator2.villin/project/trajs/8817ae38-48cf-4458-80bc-c8fd70c571e8.h5'
p388
aS'/home/harrigan/projects/msmaccelerator2.villin/project/trajs/2d23b17f-a32e-4996-9954-50abe8e2c37d.h5'
p389
aS'/home/harrigan/projects/msmaccelerator2.villin/project/trajs/dffb6720-2b60-4f64-9c02-783907163257.h5'
p390
aS'/home/harrigan/projects/msmaccelerator2.villin/project/trajs/28deb385-6ea6-4bd2-bac2-72c302e71a02.h5'
p391
aS'/home/harrigan/projects/msmaccelerator2.villin/project/trajs/e6843e4f-bea9-45a2-a437-4ea41cac320e.h5'
p392
aS'/home/harrigan/projects/msmaccelerator2.villin/project/trajs/eb538a31-0b44-480e-ae03-d170caf2dd79.h5'
p393
aS'/home/harrigan/projects/msmaccelerator2.villin/project/trajs/f885665a-8f38-42c6-b3ff-8926e089c353.h5'
p394
aS'/home/harrigan/projects/msmaccelerator2.villin/project/trajs/005525da-efa1-4cf6-9be9-9d8306357a10.h5'
p395
aS'/home/harrigan/projects/msmaccelerator2.villin/project/trajs/07d69d1b-7aa3-4055-898d-8b4b74caefac.h5'
p396
aS'/home/harrigan/projects/msmaccelerator2.villin/project/trajs/1a902aa4-aad6-40e3-b6bd-127952edafcb.h5'
p397
aS'/home/harrigan/projects/msmaccelerator2.villin/project/trajs/4c840cc2-df31-4edb-8ce3-87026d8379fa.h5'
p398
aS'/home/harrigan/projects/msmaccelerator2.villin/project/trajs/2000712f-0da6-4610-b53c-fd4f5fc4bc30.h5'
p399
aS'/home/harrigan/projects/msmaccelerator2.villin/project/trajs/c41c382c-b4b4-46ab-860f-8fdd0fffc23a.h5'
p400
aS'/home/harrigan/projects/msmaccelerator2.villin/project/trajs/469f3392-0c50-4839-af43-73c559fa36e4.h5'
p401
aS'/home/harrigan/projects/msmaccelerator2.villin/project/trajs/9fca32a2-5282-40ca-8eef-c74b7a57eef2.h5'
p402
aS'/home/harrigan/projects/msmaccelerator2.villin/project/trajs/1737ea1c-02b1-459c-920e-0276275f7d12.h5'
p403
aS'/home/harrigan/projects/msmaccelerator2.villin/project/trajs/c79a6a89-06a9-41f6-ab78-e33dfc45b447.h5'
p404
aS'/home/harrigan/projects/msmaccelerator2.villin/project/trajs/b102fb8a-228e-4a5f-a6e0-12ded4b70b34.h5'
p405
aS'/home/harrigan/projects/msmaccelerator2.villin/project/trajs/7da5a1b2-6ebe-4bb7-893d-8a40ce3cf0e2.h5'
p406
aS'/home/harrigan/projects/msmaccelerator2.villin/project/trajs/5e711cf8-9458-482c-ad9d-8cfc78f6c7d0.h5'
p407
aS'/home/harrigan/projects/msmaccelerator2.villin/project/trajs/e53ad084-652f-46c2-b566-66a003a94d13.h5'
p408
aS'/home/harrigan/projects/msmaccelerator2.villin/project/trajs/d2a81e80-cd86-4a6e-a9a6-5e298a457f68.h5'
p409
aS'/home/harrigan/projects/msmaccelerator2.villin/project/trajs/81aca328-5fce-4b88-ae7e-a9162106b3cf.h5'
p410
aS'/home/harrigan/projects/msmaccelerator2.villin/project/trajs/a254131f-cd7c-4bda-aac0-618a59cc0b9e.h5'
p411
aS'/home/harrigan/projects/msmaccelerator2.villin/project/trajs/b0911d77-72d3-48c2-938d-382c2e7eb959.h5'
p412
aS'/home/harrigan/projects/msmaccelerator2.villin/project/trajs/9f32fbff-8610-4066-9477-25a5ca797d2f.h5'
p413
aS'/home/harrigan/projects/msmaccelerator2.villin/project/trajs/bec4b65f-5b66-4634-808c-f86b82facb87.h5'
p414
aS'/home/harrigan/projects/msmaccelerator2.villin/project/trajs/79822ecb-6c5c-48e0-a963-afec4a1f87fa.h5'
p415
aS'/home/harrigan/projects/msmaccelerator2.villin/project/trajs/3d72bbe5-f111-4bcb-b476-68e7f7b1b0c5.h5'
p416
aS'/home/harrigan/projects/msmaccelerator2.villin/project/trajs/5f5e93ea-5ff1-43a6-954a-d29f2071f911.h5'
p417
aS'/home/harrigan/projects/msmaccelerator2.villin/project/trajs/9c15f310-5d97-4f57-9162-c6b860fd2450.h5'
p418
aS'/home/harrigan/projects/msmaccelerator2.villin/project/trajs/98c39638-249d-4d69-8394-136cc63e79f3.h5'
p419
aS'/home/harrigan/projects/msmaccelerator2.villin/project/trajs/e8467f8f-ed38-45e4-8b81-1fbb11791c05.h5'
p420
aS'/home/harrigan/projects/msmaccelerator2.villin/project/trajs/8f2d287e-9327-486c-bdef-9e66ae3a4e08.h5'
p421
aS'/home/harrigan/projects/msmaccelerator2.villin/project/trajs/a6b461e9-91b3-4374-81fc-6eacd1d9d472.h5'
p422
aS'/home/harrigan/projects/msmaccelerator2.villin/project/trajs/c6c1687d-8d95-4df7-a400-3dbebeca937e.h5'
p423
aS'/home/harrigan/projects/msmaccelerator2.villin/project/trajs/f4eacbe6-ac47-4e9e-86fe-846788bb3357.h5'
p424
aS'/home/harrigan/projects/msmaccelerator2.villin/project/trajs/511e8bce-121e-4e45-b617-11947f232ecc.h5'
p425
aS'/home/harrigan/projects/msmaccelerator2.villin/project/trajs/d595580d-6e89-440f-aba9-599885efdc1d.h5'
p426
aS'/home/harrigan/projects/msmaccelerator2.villin/project/trajs/5b899f9d-59a3-4cbb-95c7-9f09c5c56383.h5'
p427
aS'/home/harrigan/projects/msmaccelerator2.villin/project/trajs/13f72d7f-59e8-4783-8b04-208c9c5d4952.h5'
p428
aS'/home/harrigan/projects/msmaccelerator2.villin/project/trajs/15cf1191-abe5-4bca-a69e-31711aa5f3ed.h5'
p429
aS'/home/harrigan/projects/msmaccelerator2.villin/project/trajs/3ad2c66d-c187-49a6-b130-339b55614750.h5'
p430
aS'/home/harrigan/projects/msmaccelerator2.villin/project/trajs/f8d0e400-61c7-47b3-a045-fd071920748f.h5'
p431
aS'/home/harrigan/projects/msmaccelerator2.villin/project/trajs/ebea0bb6-3100-4b76-9a05-6b2c8c5d736e.h5'
p432
aS'/home/harrigan/projects/msmaccelerator2.villin/project/trajs/369ce7f9-07f7-40a4-aae0-e21847089539.h5'
p433
aS'/home/harrigan/projects/msmaccelerator2.villin/project/trajs/19bbec15-58bb-4481-9b2f-dd8dcd854f48.h5'
p434
aS'/home/harrigan/projects/msmaccelerator2.villin/project/trajs/3e6d17b4-3402-4fb5-9b92-84c136c4cb26.h5'
p435
aS'/home/harrigan/projects/msmaccelerator2.villin/project/trajs/d8c7829f-a3b2-4045-af81-0202154ae7eb.h5'
p436
aS'/home/harrigan/projects/msmaccelerator2.villin/project/trajs/6e723a3a-7d81-4bbc-aa9e-2c0d4d2738fc.h5'
p437
aS'/home/harrigan/projects/msmaccelerator2.villin/project/trajs/beec8a0f-7b84-4e82-bc3b-3f5b9bda4902.h5'
p438
aS'/home/harrigan/projects/msmaccelerator2.villin/project/trajs/118ebe35-8fc8-4b0e-8480-cb3faaac07ad.h5'
p439
aS'/home/harrigan/projects/msmaccelerator2.villin/project/trajs/81a1012f-b63e-4ca5-a788-9fc5c028a6e7.h5'
p440
aS'/home/harrigan/projects/msmaccelerator2.villin/project/trajs/6ee19385-7690-4ed0-9681-7d4cfadce85a.h5'
p441
aS'/home/harrigan/projects/msmaccelerator2.villin/project/trajs/3808e1cf-c1ed-41f1-9095-c5991d33f5c8.h5'
p442
aS'/home/harrigan/projects/msmaccelerator2.villin/project/trajs/05605079-582a-4c6b-8c49-c640e13af6c2.h5'
p443
aS'/home/harrigan/projects/msmaccelerator2.villin/project/trajs/3bc23c37-b96a-41a2-9ab7-442f12dfed06.h5'
p444
aS'/home/harrigan/projects/msmaccelerator2.villin/project/trajs/40971d38-5fff-4de7-baa5-fbb71b883bae.h5'
p445
aS'/home/harrigan/projects/msmaccelerator2.villin/project/trajs/777067d1-7113-4157-a2b9-f4fb441909ec.h5'
p446
aS'/home/harrigan/projects/msmaccelerator2.villin/project/trajs/1f417421-0c8d-4b70-9ee1-90d6a34e6f45.h5'
p447
aS'/home/harrigan/projects/msmaccelerator2.villin/project/trajs/4dc9e8ea-b5b9-44ed-9566-b868607e4bbd.h5'
p448
aS'/home/harrigan/projects/msmaccelerator2.villin/project/trajs/5b35034c-1b93-458c-bc4a-30071845121c.h5'
p449
aS'/home/harrigan/projects/msmaccelerator2.villin/project/trajs/38e45ac4-e767-45c3-96a0-8b58d88cf19c.h5'
p450
aS'/home/harrigan/projects/msmaccelerator2.villin/project/trajs/c9320d09-d9db-4dc6-aa89-bd6da361b55e.h5'
p451
aS'/home/harrigan/projects/msmaccelerator2.villin/project/trajs/8c614fa1-d6e0-4fba-88a4-c87ffbe50dda.h5'
p452
aS'/home/harrigan/projects/msmaccelerator2.villin/project/trajs/70f606d9-299a-48b8-bf74-67e85544012f.h5'
p453
aS'/home/harrigan/projects/msmaccelerator2.villin/project/trajs/71dad829-e604-4909-ac0a-950d62a447fc.h5'
p454
aS'/home/harrigan/projects/msmaccelerator2.villin/project/trajs/17758d33-1584-4769-bcbc-2aae4b3d3489.h5'
p455
aS'/home/harrigan/projects/msmaccelerator2.villin/project/trajs/e66c615e-4d73-4ad0-8706-d5f67ff6f00d.h5'
p456
aS'/home/harrigan/projects/msmaccelerator2.villin/project/trajs/171f8093-f3f1-4889-b56d-edbb7cc3ad0a.h5'
p457
aS'/home/harrigan/projects/msmaccelerator2.villin/project/trajs/22998114-161a-4255-a229-99e94a6a7865.h5'
p458
aS'/home/harrigan/projects/msmaccelerator2.villin/project/trajs/68c1ee62-79bc-4302-b89b-ce7a8912df81.h5'
p459
aS'/home/harrigan/projects/msmaccelerator2.villin/project/trajs/e2e6b63d-4604-4d0f-b06a-78d10a402d51.h5'
p460
aS'/home/harrigan/projects/msmaccelerator2.villin/project/trajs/2e32a5f0-7743-468a-9a8a-a90ed41301d2.h5'
p461
aS'/home/harrigan/projects/msmaccelerator2.villin/project/trajs/b59b5a61-9c7e-48ce-b910-b66ad52bdf59.h5'
p462
aS'/home/harrigan/projects/msmaccelerator2.villin/project/trajs/8960f678-9a97-4816-b1f8-461c3615e182.h5'
p463
aS'/home/harrigan/projects/msmaccelerator2.villin/project/trajs/6f0954d6-aba6-4c66-ac07-37419ea8f5f4.h5'
p464
aS'/home/harrigan/projects/msmaccelerator2.villin/project/trajs/f344e575-01ff-4a0c-9dbf-26d5be993524.h5'
p465
aS'/home/harrigan/projects/msmaccelerator2.villin/project/trajs/f5464fd5-cf80-4d74-9676-35bd569da451.h5'
p466
aS'/home/harrigan/projects/msmaccelerator2.villin/project/trajs/bff87ee5-4dd6-4762-adb0-97c7be7d8c38.h5'
p467
aS'/home/harrigan/projects/msmaccelerator2.villin/project/trajs/24712ee1-2ee9-41c0-9cd3-55040aa2528c.h5'
p468
aS'/home/harrigan/projects/msmaccelerator2.villin/project/trajs/9d5a943c-eee4-4758-8055-a27de92d3a6f.h5'
p469
aS'/home/harrigan/projects/msmaccelerator2.villin/project/trajs/b3ea09d6-563e-4b53-aebd-88f30948da67.h5'
p470
aS'/home/harrigan/projects/msmaccelerator2.villin/project/trajs/61ed4f65-75ac-4083-ae47-c11091368b51.h5'
p471
aS'/home/harrigan/projects/msmaccelerator2.villin/project/trajs/a0cd10fe-6dd3-4a3e-a8b0-3df4a80b7298.h5'
p472
aS'/home/harrigan/projects/msmaccelerator2.villin/project/trajs/3a1a5526-bdac-48d8-b413-14fec5427299.h5'
p473
aS'/home/harrigan/projects/msmaccelerator2.villin/project/trajs/cc937a34-96f7-4c2f-9915-d176f20dddb2.h5'
p474
aS'/home/harrigan/projects/msmaccelerator2.villin/project/trajs/678d8179-21c2-4b24-836b-81f8b9fe6fea.h5'
p475
aS'/home/harrigan/projects/msmaccelerator2.villin/project/trajs/7f20b09c-b497-4f73-b9c0-2677418d0461.h5'
p476
aS'/home/harrigan/projects/msmaccelerator2.villin/project/trajs/294172b5-7d8a-4709-9989-5b6ba47436d1.h5'
p477
aS'/home/harrigan/projects/msmaccelerator2.villin/project/trajs/df3a92f5-d706-473b-aa3a-a6e485532afd.h5'
p478
aS'/home/harrigan/projects/msmaccelerator2.villin/project/trajs/0ed49638-da5b-4f37-a6ec-e091a01645c4.h5'
p479
aS'/home/harrigan/projects/msmaccelerator2.villin/project/trajs/75282eea-2504-405c-8738-fb158e40a2a8.h5'
p480
aS'/home/harrigan/projects/msmaccelerator2.villin/project/trajs/15a9acdf-bf9a-430b-a84d-598cc394cf3e.h5'
p481
aS'/home/harrigan/projects/msmaccelerator2.villin/project/trajs/6068da81-f157-43b0-9e02-1db2e4b8821d.h5'
p482
aS'/home/harrigan/projects/msmaccelerator2.villin/project/trajs/017b2d36-b3ae-4538-8e5b-1c47a733315b.h5'
p483
aS'/home/harrigan/projects/msmaccelerator2.villin/project/trajs/9fd08b59-dce6-4f45-934e-fa830e29cc14.h5'
p484
aS'/home/harrigan/projects/msmaccelerator2.villin/project/trajs/4caf619c-24ac-49d0-87fe-b61f8b82ae51.h5'
p485
aS'/home/harrigan/projects/msmaccelerator2.villin/project/trajs/5d42c519-3916-49b9-9321-0d125e18cad0.h5'
p486
aS'/home/harrigan/projects/msmaccelerator2.villin/project/trajs/619c3281-5644-48f1-baa3-b8c4f5a33d79.h5'
p487
aS'/home/harrigan/projects/msmaccelerator2.villin/project/trajs/2172bca1-7f3c-4bc6-b4e6-fa90172048cc.h5'
p488
aS'/home/harrigan/projects/msmaccelerator2.villin/project/trajs/2755aa49-aa14-4f6a-85cc-aad8aaa029de.h5'
p489
aS'/home/harrigan/projects/msmaccelerator2.villin/project/trajs/3324eee0-5111-4c18-8c4d-ba4b6af55730.h5'
p490
aS'/home/harrigan/projects/msmaccelerator2.villin/project/trajs/1d2c2d3e-637f-42c3-936f-aab31024d600.h5'
p491
aS'/home/harrigan/projects/msmaccelerator2.villin/project/trajs/4d098d79-0ff1-459e-9fe9-18b1b92441f1.h5'
p492
aS'/home/harrigan/projects/msmaccelerator2.villin/project/trajs/93b722e6-69a2-4005-96f7-38a16a7be23a.h5'
p493
aS'/home/harrigan/projects/msmaccelerator2.villin/project/trajs/0008cfd7-3bba-4e2b-96e4-dcdd4ef85411.h5'
p494
aS'/home/harrigan/projects/msmaccelerator2.villin/project/trajs/fe8aa0ab-b013-4c9a-aa16-107b892580b5.h5'
p495
aS'/home/harrigan/projects/msmaccelerator2.villin/project/trajs/1952d924-8e78-4fb6-b3d3-d3b2dec7430f.h5'
p496
aS'/home/harrigan/projects/msmaccelerator2.villin/project/trajs/72120984-ea48-4266-b5de-8d2f6939457c.h5'
p497
aS'/home/harrigan/projects/msmaccelerator2.villin/project/trajs/36c63177-fccd-4918-9330-f0b80a4e596b.h5'
p498
aS'/home/harrigan/projects/msmaccelerator2.villin/project/trajs/9640bdb4-29e7-4b1d-8635-339d7dd229bd.h5'
p499
aS'/home/harrigan/projects/msmaccelerator2.villin/project/trajs/8f5649e4-e05b-4d0a-b8e7-405b5f2ebe34.h5'
p500
aS'/home/harrigan/projects/msmaccelerator2.villin/project/trajs/e1b968cd-4722-4e09-9e3c-da687ba90a23.h5'
p501
aS'/home/harrigan/projects/msmaccelerator2.villin/project/trajs/0e97d4f5-8e3b-42cd-a588-3f1eec598657.h5'
p502
aS'/home/harrigan/projects/msmaccelerator2.villin/project/trajs/650a71be-f0a6-4c66-a166-a45eaf2d6733.h5'
p503
aS'/home/harrigan/projects/msmaccelerator2.villin/project/trajs/bab42a1f-5b15-4f58-9d5c-0044de8a91bd.h5'
p504
aS'/home/harrigan/projects/msmaccelerator2.villin/project/trajs/44325dc1-3a4e-448d-89cc-d686fe58d851.h5'
p505
aS'/home/harrigan/projects/msmaccelerator2.villin/project/trajs/db7dd000-0c11-4ccd-89ef-792e84641fd9.h5'
p506
aS'/home/harrigan/projects/msmaccelerator2.villin/project/trajs/d8bb51c6-59cf-4ebf-8317-feae4f1a83a5.h5'
p507
aS'/home/harrigan/projects/msmaccelerator2.villin/project/trajs/3be8bfe3-8e33-49b1-b2b2-c2e89ca432e1.h5'
p508
aS'/home/harrigan/projects/msmaccelerator2.villin/project/trajs/6e04b210-706d-4509-b0ff-91ef42688790.h5'
p509
aS'/home/harrigan/projects/msmaccelerator2.villin/project/trajs/496fd6bb-f4b7-42a3-bd5c-2cd5c6b2d70c.h5'
p510
aS'/home/harrigan/projects/msmaccelerator2.villin/project/trajs/1eca3c8f-25b3-44f5-8746-1cbd3503d9f9.h5'
p511
aS'/home/harrigan/projects/msmaccelerator2.villin/project/trajs/1945669c-3859-4b63-b28d-91dfca99735f.h5'
p512
aS'/home/harrigan/projects/msmaccelerator2.villin/project/trajs/4bea33e5-e0ea-441f-bdb4-204873a256f9.h5'
p513
aS'/home/harrigan/projects/msmaccelerator2.villin/project/trajs/7c65a101-e15d-4edf-802a-39811f873a67.h5'
p514
aS'/home/harrigan/projects/msmaccelerator2.villin/project/trajs/7a2069d5-18b4-477b-9ca3-8fa434265930.h5'
p515
aS'/home/harrigan/projects/msmaccelerator2.villin/project/trajs/4bb235a2-83cb-4d56-9bd6-90d695f614f1.h5'
p516
aS'/home/harrigan/projects/msmaccelerator2.villin/project/trajs/4eabb7e3-2848-4ef5-b701-c89fe3a51fe1.h5'
p517
aS'/home/harrigan/projects/msmaccelerator2.villin/project/trajs/a3c8c531-8c69-4001-ba14-1e4e4cb57b3c.h5'
p518
aS'/home/harrigan/projects/msmaccelerator2.villin/project/trajs/775b3856-cee8-40a4-8dfd-176c693560e8.h5'
p519
aS'/home/harrigan/projects/msmaccelerator2.villin/project/trajs/0b1bd7c5-4112-4528-86b1-3ee6eac57365.h5'
p520
aS'/home/harrigan/projects/msmaccelerator2.villin/project/trajs/10096ab8-896f-4f13-995a-afdfc9376f77.h5'
p521
aS'/home/harrigan/projects/msmaccelerator2.villin/project/trajs/519ade3f-8fe8-4c6e-b5f3-eac51b7eef39.h5'
p522
aS'/home/harrigan/projects/msmaccelerator2.villin/project/trajs/948a660e-47a2-4ed0-a7e2-f3b51a84ea7d.h5'
p523
aS'/home/harrigan/projects/msmaccelerator2.villin/project/trajs/303185ba-61d5-4063-8f0b-925df63d651d.h5'
p524
aS'/home/harrigan/projects/msmaccelerator2.villin/project/trajs/b9c7a28c-0636-474f-8a47-6989480b3c78.h5'
p525
aS'/home/harrigan/projects/msmaccelerator2.villin/project/trajs/bd2ff2a9-db03-4090-bcff-72b015c41e35.h5'
p526
aS'/home/harrigan/projects/msmaccelerator2.villin/project/trajs/0853c582-47b3-4448-89ac-ce43e13296dd.h5'
p527
aS'/home/harrigan/projects/msmaccelerator2.villin/project/trajs/5e1c19fe-9dc9-4c7e-aacd-d7370c80c9f8.h5'
p528
aS'/home/harrigan/projects/msmaccelerator2.villin/project/trajs/280e92f0-5dcc-4d13-a504-98c18c68b939.h5'
p529
aS'/home/harrigan/projects/msmaccelerator2.villin/project/trajs/138d7b2d-13e6-48ef-b4e9-30732acd9c65.h5'
p530
aS'/home/harrigan/projects/msmaccelerator2.villin/project/trajs/bc3cc1ea-3dc7-4e75-b380-83deb2a12297.h5'
p531
aS'/home/harrigan/projects/msmaccelerator2.villin/project/trajs/16c35c85-7fe7-4311-81cc-af148e77adc3.h5'
p532
aS'/home/harrigan/projects/msmaccelerator2.villin/project/trajs/0b8bb56a-7705-409f-8bdf-9747764b2ba0.h5'
p533
aS'/home/harrigan/projects/msmaccelerator2.villin/project/trajs/c6ecd3f4-aba2-4c59-b359-06b6204b91f4.h5'
p534
aS'/home/harrigan/projects/msmaccelerator2.villin/project/trajs/8e1027ea-24cf-4cf3-98f8-f97deffeddb0.h5'
p535
aS'/home/harrigan/projects/msmaccelerator2.villin/project/trajs/aba5f8ce-c168-49cf-a225-4997f35bd96c.h5'
p536
aS'/home/harrigan/projects/msmaccelerator2.villin/project/trajs/04a85594-d352-4f20-b42e-e1f7a9602831.h5'
p537
aS'/home/harrigan/projects/msmaccelerator2.villin/project/trajs/2b2e886a-c436-4d8f-aed1-283d5d8a0171.h5'
p538
aS'/home/harrigan/projects/msmaccelerator2.villin/project/trajs/8a10df2a-b1e1-4a10-83e8-2387bf10a6fc.h5'
p539
aS'/home/harrigan/projects/msmaccelerator2.villin/project/trajs/37df5c4e-adda-4af3-8081-f0581676b18f.h5'
p540
aS'/home/harrigan/projects/msmaccelerator2.villin/project/trajs/96061828-3b83-4fdd-a243-461326f95e75.h5'
p541
aS'/home/harrigan/projects/msmaccelerator2.villin/project/trajs/e1820ad0-2c5d-4663-9909-b63f5d3b56c7.h5'
p542
aS'/home/harrigan/projects/msmaccelerator2.villin/project/trajs/fdca85b1-f6f6-445e-afb5-f0e4fa859df7.h5'
p543
aS'/home/harrigan/projects/msmaccelerator2.villin/project/trajs/eb71a07f-5788-4220-a227-fccf91a0468c.h5'
p544
aS'/home/harrigan/projects/msmaccelerator2.villin/project/trajs/44e2146e-36ea-4211-bcf9-9e9730369990.h5'
p545
aS'/home/harrigan/projects/msmaccelerator2.villin/project/trajs/cfcdd58a-86db-49d4-8511-0f4e1100a819.h5'
p546
aS'/home/harrigan/projects/msmaccelerator2.villin/project/trajs/195e9ed8-318d-411f-a973-7b746f48bc16.h5'
p547
aS'/home/harrigan/projects/msmaccelerator2.villin/project/trajs/92a5bc01-3ec7-48e5-9fe4-d6f25c3e637e.h5'
p548
aS'/home/harrigan/projects/msmaccelerator2.villin/project/trajs/02fa3da7-194d-44e1-bb6c-69be9df50c68.h5'
p549
aS'/home/harrigan/projects/msmaccelerator2.villin/project/trajs/064c4148-d43d-49f5-9c60-f4b3320ffa2c.h5'
p550
aS'/home/harrigan/projects/msmaccelerator2.villin/project/trajs/0ff979bb-fbd6-4e9e-b07f-3d73eec02eca.h5'
p551
aS'/home/harrigan/projects/msmaccelerator2.villin/project/trajs/04437d54-e190-4454-abe0-242ccb60fac4.h5'
p552
aS'/home/harrigan/projects/msmaccelerator2.villin/project/trajs/0c0f37da-93bf-4265-accf-3e4c3e0abcfd.h5'
p553
aS'/home/harrigan/projects/msmaccelerator2.villin/project/trajs/d478b521-b10e-4114-b002-0acaa0578982.h5'
p554
aS'/home/harrigan/projects/msmaccelerator2.villin/project/trajs/058b0889-81f3-4e9c-9fac-bb2da0c31ca7.h5'
p555
aS'/home/harrigan/projects/msmaccelerator2.villin/project/trajs/77e56bc3-d7ce-4711-9316-4a498443a630.h5'
p556
aS'/home/harrigan/projects/msmaccelerator2.villin/project/trajs/a8407d60-fd15-43f0-a781-2f8e3bcdef0a.h5'
p557
aS'/home/harrigan/projects/msmaccelerator2.villin/project/trajs/f536b553-8348-493c-934a-330e1854951b.h5'
p558
aS'/home/harrigan/projects/msmaccelerator2.villin/project/trajs/6061c599-8127-4b68-b544-9a97421cf3f8.h5'
p559
aS'/home/harrigan/projects/msmaccelerator2.villin/project/trajs/c18f7843-f875-473e-9328-52d7a1acebc6.h5'
p560
aS'/home/harrigan/projects/msmaccelerator2.villin/project/trajs/9226f513-4f10-406d-ad51-c75802f8cb3f.h5'
p561
aS'/home/harrigan/projects/msmaccelerator2.villin/project/trajs/88d62b86-cdea-4947-a8e7-412fc973066e.h5'
p562
aS'/home/harrigan/projects/msmaccelerator2.villin/project/trajs/c2cc9361-95e3-4bd0-90f0-3ff90572d4b5.h5'
p563
aS'/home/harrigan/projects/msmaccelerator2.villin/project/trajs/1cab81ee-1c43-4c83-9f93-2dff7b3901d1.h5'
p564
aS'/home/harrigan/projects/msmaccelerator2.villin/project/trajs/826978e0-a7a7-42f1-9235-07ea03e8d602.h5'
p565
aS'/home/harrigan/projects/msmaccelerator2.villin/project/trajs/80f9b893-65bf-46ce-980a-0eaf9d77aca9.h5'
p566
aS'/home/harrigan/projects/msmaccelerator2.villin/project/trajs/bfc830fc-aa98-409e-951b-3b6590249e31.h5'
p567
aS'/home/harrigan/projects/msmaccelerator2.villin/project/trajs/e41136e5-d427-4ac2-a7ee-e0809f03cbf4.h5'
p568
aS'/home/harrigan/projects/msmaccelerator2.villin/project/trajs/a998eb4c-3608-4853-a0a9-5a21f1ac179e.h5'
p569
aS'/home/harrigan/projects/msmaccelerator2.villin/project/trajs/ec595b40-2c88-4c2c-bf2b-153554ba2660.h5'
p570
aS'/home/harrigan/projects/msmaccelerator2.villin/project/trajs/f63e1283-b73c-4fd8-afe1-4be9a696e32a.h5'
p571
aS'/home/harrigan/projects/msmaccelerator2.villin/project/trajs/ca6160d3-794d-4df4-b9d5-80db76fbb649.h5'
p572
aS'/home/harrigan/projects/msmaccelerator2.villin/project/trajs/59c88e76-f2d7-4dcc-a5ad-6db4fef6ccbd.h5'
p573
aS'/home/harrigan/projects/msmaccelerator2.villin/project/trajs/0208f6f5-cc93-4f4c-83de-de33e705b3de.h5'
p574
aS'/home/harrigan/projects/msmaccelerator2.villin/project/trajs/f3017f8c-91da-4996-a2ce-20d37fec44f4.h5'
p575
aS'/home/harrigan/projects/msmaccelerator2.villin/project/trajs/185a2743-5211-4249-a681-05779cbb486c.h5'
p576
aS'/home/harrigan/projects/msmaccelerator2.villin/project/trajs/9d41d883-6a69-4528-a907-90ce9fae4b09.h5'
p577
aS'/home/harrigan/projects/msmaccelerator2.villin/project/trajs/2bbda283-1e08-4bf7-adb5-4a5e6bfe9bf4.h5'
p578
aS'/home/harrigan/projects/msmaccelerator2.villin/project/trajs/8588fd70-1b7c-4296-8379-bf54fbb9e120.h5'
p579
aS'/home/harrigan/projects/msmaccelerator2.villin/project/trajs/2193d6ad-2a83-4c7a-8987-df025a200259.h5'
p580
aS'/home/harrigan/projects/msmaccelerator2.villin/project/trajs/4174617c-de03-44f5-ab4b-ab985481cdec.h5'
p581
aS'/home/harrigan/projects/msmaccelerator2.villin/project/trajs/e093f38b-e3ec-47d0-a511-6ea1e3351020.h5'
p582
aS'/home/harrigan/projects/msmaccelerator2.villin/project/trajs/957accb9-2e4c-4f49-aa90-a50234df8c74.h5'
p583
aS'/home/harrigan/projects/msmaccelerator2.villin/project/trajs/0378d61d-ae40-4b8e-9464-ecd9e571e504.h5'
p584
aS'/home/harrigan/projects/msmaccelerator2.villin/project/trajs/14073a7e-e3c6-43b3-858b-a000b6c289fc.h5'
p585
aS'/home/harrigan/projects/msmaccelerator2.villin/project/trajs/ea3dff88-592d-42e4-b5d9-d6f2d3e1e43c.h5'
p586
aS'/home/harrigan/projects/msmaccelerator2.villin/project/trajs/b19b6db6-048d-4f55-9d18-c380af1ab816.h5'
p587
aS'/home/harrigan/projects/msmaccelerator2.villin/project/trajs/40f742ff-d3b9-4886-99ef-8a9c48775751.h5'
p588
aS'/home/harrigan/projects/msmaccelerator2.villin/project/trajs/6610d615-57a0-429d-a940-df535346f396.h5'
p589
aS'/home/harrigan/projects/msmaccelerator2.villin/project/trajs/c2fa026a-2431-42f7-a07b-bac78819cb8b.h5'
p590
aS'/home/harrigan/projects/msmaccelerator2.villin/project/trajs/fe31d495-808a-498d-acdc-67cb167509df.h5'
p591
aS'/home/harrigan/projects/msmaccelerator2.villin/project/trajs/e671ee4b-61cd-456c-8eb8-a6efdb0573b0.h5'
p592
aS'/home/harrigan/projects/msmaccelerator2.villin/project/trajs/92883424-3bdd-48f2-8031-e55fd39b9349.h5'
p593
aS'/home/harrigan/projects/msmaccelerator2.villin/project/trajs/32bde5fe-0002-4f37-99a4-937491c4943f.h5'
p594
aS'/home/harrigan/projects/msmaccelerator2.villin/project/trajs/5e25015d-df50-43c9-b7c0-9b4a653914ad.h5'
p595
aS'/home/harrigan/projects/msmaccelerator2.villin/project/trajs/72cf9b07-2911-4b1d-9ac9-8f511772c967.h5'
p596
aS'/home/harrigan/projects/msmaccelerator2.villin/project/trajs/d559c07b-e50e-4fe7-8b28-39971b78edc2.h5'
p597
aS'/home/harrigan/projects/msmaccelerator2.villin/project/trajs/a6ec72cb-4e11-4744-8d11-5f9a9f13c121.h5'
p598
aS'/home/harrigan/projects/msmaccelerator2.villin/project/trajs/6cac9391-81a1-4be5-b554-71f1ae47e8b7.h5'
p599
aS'/home/harrigan/projects/msmaccelerator2.villin/project/trajs/4c824c4f-933f-4690-b564-5cd1dec327b4.h5'
p600
aS'/home/harrigan/projects/msmaccelerator2.villin/project/trajs/998433d4-c47b-4763-a792-c47799828416.h5'
p601
aS'/home/harrigan/projects/msmaccelerator2.villin/project/trajs/13255206-b7b9-44ea-a057-4e005fd7cd64.h5'
p602
aS'/home/harrigan/projects/msmaccelerator2.villin/project/trajs/4200b6a0-51ec-4ced-bf7a-1f76fd816c87.h5'
p603
aS'/home/harrigan/projects/msmaccelerator2.villin/project/trajs/622be928-3743-4777-9727-f84f587f42c4.h5'
p604
aS'/home/harrigan/projects/msmaccelerator2.villin/project/trajs/143d538f-cf7b-471f-853e-ab999328a582.h5'
p605
aS'/home/harrigan/projects/msmaccelerator2.villin/project/trajs/0d03719d-e583-4ea5-af74-1d0a141fcc6d.h5'
p606
aS'/home/harrigan/projects/msmaccelerator2.villin/project/trajs/c6d22856-ca40-42c1-b945-936b10d578b6.h5'
p607
aS'/home/harrigan/projects/msmaccelerator2.villin/project/trajs/9810eeed-8d02-4479-ac18-acdeaba02533.h5'
p608
aS'/home/harrigan/projects/msmaccelerator2.villin/project/trajs/bd3cbc88-c903-4c1c-94e1-2a988f352980.h5'
p609
aS'/home/harrigan/projects/msmaccelerator2.villin/project/trajs/307ae6a4-e486-4609-a3e5-e39023b1c9c6.h5'
p610
aS'/home/harrigan/projects/msmaccelerator2.villin/project/trajs/a93f1a37-f4fd-442e-9550-781679e00493.h5'
p611
aS'/home/harrigan/projects/msmaccelerator2.villin/project/trajs/7959456c-e052-48b9-a479-5c7b88175255.h5'
p612
aS'/home/harrigan/projects/msmaccelerator2.villin/project/trajs/3c7b7b02-41d2-4bac-9be2-92d8cb3a498b.h5'
p613
aS'/home/harrigan/projects/msmaccelerator2.villin/project/trajs/5a20675a-0f8b-40d7-82a6-9a7b2907b7cb.h5'
p614
aS'/home/harrigan/projects/msmaccelerator2.villin/project/trajs/f7f2797a-6dcd-4750-ad85-a0df5fae5739.h5'
p615
aS'/home/harrigan/projects/msmaccelerator2.villin/project/trajs/06e3b1e3-fe21-4836-bbc8-90928694f1cf.h5'
p616
aS'/home/harrigan/projects/msmaccelerator2.villin/project/trajs/f873cba7-f85a-4daa-93ec-90e64d5456ef.h5'
p617
aS'/home/harrigan/projects/msmaccelerator2.villin/project/trajs/810cd046-1321-4cbf-8427-5448eae6f3ec.h5'
p618
aS'/home/harrigan/projects/msmaccelerator2.villin/project/trajs/e86c8a46-1764-4418-9525-22deeae84062.h5'
p619
aS'/home/harrigan/projects/msmaccelerator2.villin/project/trajs/b3939508-46e8-47e5-8d85-72f8fb4da151.h5'
p620
aS'/home/harrigan/projects/msmaccelerator2.villin/project/trajs/d89655b5-2317-4779-8a5f-a9eb5635596f.h5'
p621
aS'/home/harrigan/projects/msmaccelerator2.villin/project/trajs/34b84290-cc8a-45cd-ab1f-6fa3eba0c86f.h5'
p622
aS'/home/harrigan/projects/msmaccelerator2.villin/project/trajs/2aa33cdf-2c7a-4aa6-a6d4-9fcc89f3c1ca.h5'
p623
aS'/home/harrigan/projects/msmaccelerator2.villin/project/trajs/12ff8e02-15db-4940-9154-bc9e08a12c9d.h5'
p624
aS'/home/harrigan/projects/msmaccelerator2.villin/project/trajs/0563759c-b068-483e-bce5-e506f9cbb28e.h5'
p625
aS'/home/harrigan/projects/msmaccelerator2.villin/project/trajs/caa648dd-a9a1-499d-b027-2122a01f38fd.h5'
p626
aS'/home/harrigan/projects/msmaccelerator2.villin/project/trajs/d546535f-36a9-4a2a-a984-89c087400a4e.h5'
p627
aS'/home/harrigan/projects/msmaccelerator2.villin/project/trajs/68b85071-86f0-402c-aff9-55a652d53c74.h5'
p628
aS'/home/harrigan/projects/msmaccelerator2.villin/project/trajs/37b553b8-8333-4abe-88a8-113d29183db3.h5'
p629
aS'/home/harrigan/projects/msmaccelerator2.villin/project/trajs/27132dae-27a2-4e7a-8b9e-30695a242753.h5'
p630
aS'/home/harrigan/projects/msmaccelerator2.villin/project/trajs/fa42f20a-d88e-4d1a-9035-140f9148a90f.h5'
p631
aS'/home/harrigan/projects/msmaccelerator2.villin/project/trajs/28af2897-568b-45bd-b9f6-1dc180939d07.h5'
p632
aS'/home/harrigan/projects/msmaccelerator2.villin/project/trajs/74927c85-2744-4571-b0c9-36bd061bc4f7.h5'
p633
aS'/home/harrigan/projects/msmaccelerator2.villin/project/trajs/aefe937a-4a1f-4f49-96fe-7ac448133a20.h5'
p634
aS'/home/harrigan/projects/msmaccelerator2.villin/project/trajs/274d96b9-ea6f-45f8-8baf-1a85e26ad184.h5'
p635
aS'/home/harrigan/projects/msmaccelerator2.villin/project/trajs/07f78635-48da-4902-b2a4-c76772950a6e.h5'
p636
aS'/home/harrigan/projects/msmaccelerator2.villin/project/trajs/83662184-7031-4dde-9d32-c7d9a22dd764.h5'
p637
aS'/home/harrigan/projects/msmaccelerator2.villin/project/trajs/c3fa0cbe-74af-4fe0-812e-185efb1de460.h5'
p638
aS'/home/harrigan/projects/msmaccelerator2.villin/project/trajs/dfddf836-377a-43be-93b6-82a62618612b.h5'
p639
aS'/home/harrigan/projects/msmaccelerator2.villin/project/trajs/227c71db-f87b-4d97-ad98-5dab2bb8d87c.h5'
p640
aS'/home/harrigan/projects/msmaccelerator2.villin/project/trajs/96d6343c-f5d8-46b3-a291-a47ce9984ca8.h5'
p641
aS'/home/harrigan/projects/msmaccelerator2.villin/project/trajs/dea38c37-bea3-40f8-b63a-72486c77450d.h5'
p642
aS'/home/harrigan/projects/msmaccelerator2.villin/project/trajs/fe006f7a-11df-4c89-a971-72ca7808b241.h5'
p643
aS'/home/harrigan/projects/msmaccelerator2.villin/project/trajs/cd1fbe31-c389-49d1-a4c4-aa602f9d0e9a.h5'
p644
aS'/home/harrigan/projects/msmaccelerator2.villin/project/trajs/021df160-54f9-4a5c-8f84-044b4911ce28.h5'
p645
aS'/home/harrigan/projects/msmaccelerator2.villin/project/trajs/66dbab49-6138-40ec-aa7c-ce21e29cdf03.h5'
p646
aS'/home/harrigan/projects/msmaccelerator2.villin/project/trajs/140a3032-cac8-436e-8ad6-7e5ff666a8c1.h5'
p647
aS'/home/harrigan/projects/msmaccelerator2.villin/project/trajs/acd97c1f-4e79-43dc-ae6d-b3c416f69c17.h5'
p648
aS'/home/harrigan/projects/msmaccelerator2.villin/project/trajs/cf6ef928-9840-4349-bfa5-b28faa9aed75.h5'
p649
aS'/home/harrigan/projects/msmaccelerator2.villin/project/trajs/90450b34-971e-4e4e-aa26-b4a81e5f1e5d.h5'
p650
aS'/home/harrigan/projects/msmaccelerator2.villin/project/trajs/7249dbef-0093-4c52-b9d7-aff7a13d6bb5.h5'
p651
aS'/home/harrigan/projects/msmaccelerator2.villin/project/trajs/1cf08c64-dbf5-4daf-a0d3-381765463ebe.h5'
p652
aS'/home/harrigan/projects/msmaccelerator2.villin/project/trajs/f7894d8a-ead5-40a6-9140-94a8af5790e6.h5'
p653
aS'/home/harrigan/projects/msmaccelerator2.villin/project/trajs/8eb6345e-f499-4807-a09e-758fe1400d0e.h5'
p654
aS'/home/harrigan/projects/msmaccelerator2.villin/project/trajs/cf87c169-8239-4588-9257-1482bca134d2.h5'
p655
aS'/home/harrigan/projects/msmaccelerator2.villin/project/trajs/9abac066-bdff-467d-b71e-3a1ca4b59dd6.h5'
p656
aS'/home/harrigan/projects/msmaccelerator2.villin/project/trajs/a22b1381-17a9-45ac-87f5-23e8bce8eacc.h5'
p657
aS'/home/harrigan/projects/msmaccelerator2.villin/project/trajs/cc14c411-d0b7-4411-a598-c7973af62f65.h5'
p658
aS'/home/harrigan/projects/msmaccelerator2.villin/project/trajs/b26346c9-1c0a-4744-a282-c59d6d307c0c.h5'
p659
aS'/home/harrigan/projects/msmaccelerator2.villin/project/trajs/5f623b5f-a75a-407b-af95-43ac4a93e707.h5'
p660
aS'/home/harrigan/projects/msmaccelerator2.villin/project/trajs/cc982fa7-78cb-4a42-8130-48e74da0f308.h5'
p661
aS'/home/harrigan/projects/msmaccelerator2.villin/project/trajs/6e9e768e-50a8-4d8c-9cbb-c2f246feeedb.h5'
p662
aS'/home/harrigan/projects/msmaccelerator2.villin/project/trajs/d1d4e957-6824-4fc2-a2a7-65061ea37f14.h5'
p663
aS'/home/harrigan/projects/msmaccelerator2.villin/project/trajs/51d8921f-74ae-45c3-abc0-75a773900ec6.h5'
p664
aS'/home/harrigan/projects/msmaccelerator2.villin/project/trajs/fcf4bb62-f758-4087-a00f-7a2833d4ce3a.h5'
p665
aS'/home/harrigan/projects/msmaccelerator2.villin/project/trajs/a52b6726-b2ad-45d4-9a5e-07178eac6371.h5'
p666
aS'/home/harrigan/projects/msmaccelerator2.villin/project/trajs/915d2028-b8b8-49f5-a8ee-46000ae9154f.h5'
p667
aS'/home/harrigan/projects/msmaccelerator2.villin/project/trajs/4c4f1731-8e99-4832-83e0-6b1faa2b8bdd.h5'
p668
aS'/home/harrigan/projects/msmaccelerator2.villin/project/trajs/f391cc42-2224-44be-aaf8-55f994a38eb4.h5'
p669
aS'/home/harrigan/projects/msmaccelerator2.villin/project/trajs/5b1679c7-48e3-4101-bc1e-e298089168fa.h5'
p670
aS'/home/harrigan/projects/msmaccelerator2.villin/project/trajs/38f6fda7-1903-4e00-af5f-f8d714409b62.h5'
p671
aS'/home/harrigan/projects/msmaccelerator2.villin/project/trajs/bec489f4-36d5-4326-93cb-6b655d87ceb0.h5'
p672
aS'/home/harrigan/projects/msmaccelerator2.villin/project/trajs/07a79ff1-7854-40f5-935f-348e82cdf0e6.h5'
p673
aS'/home/harrigan/projects/msmaccelerator2.villin/project/trajs/da752d8b-b528-4b85-b4a1-86ea10729d16.h5'
p674
aS'/home/harrigan/projects/msmaccelerator2.villin/project/trajs/e16d234f-1fdc-488f-afaa-54191ca29734.h5'
p675
aS'/home/harrigan/projects/msmaccelerator2.villin/project/trajs/53b9a884-f9ae-4635-9817-4c1b91be507d.h5'
p676
aS'/home/harrigan/projects/msmaccelerator2.villin/project/trajs/f54766c0-5a20-40fa-aa11-2702dc603eab.h5'
p677
aS'/home/harrigan/projects/msmaccelerator2.villin/project/trajs/c8811d48-1925-40b3-923e-debadc54be5d.h5'
p678
aS'/home/harrigan/projects/msmaccelerator2.villin/project/trajs/d570274f-4bf4-49af-8020-49f1647cef2f.h5'
p679
aS'/home/harrigan/projects/msmaccelerator2.villin/project/trajs/95116a6e-7f8b-4b3a-8bdb-cb783bb59555.h5'
p680
aS'/home/harrigan/projects/msmaccelerator2.villin/project/trajs/bc6a7672-c5b9-4f3e-a96b-6ebb906193ae.h5'
p681
aS'/home/harrigan/projects/msmaccelerator2.villin/project/trajs/22f24d4d-7001-40e1-a721-655d611e96cf.h5'
p682
aS'/home/harrigan/projects/msmaccelerator2.villin/project/trajs/80818827-acd5-4a95-8c46-3a7d6ffdcd27.h5'
p683
aS'/home/harrigan/projects/msmaccelerator2.villin/project/trajs/8c598447-78c5-4130-af69-405bb20493a4.h5'
p684
aS'/home/harrigan/projects/msmaccelerator2.villin/project/trajs/4912c9ac-1f65-4f12-ab6d-0a94ed22c348.h5'
p685
aS'/home/harrigan/projects/msmaccelerator2.villin/project/trajs/af45577f-5ff0-45c8-ba04-a9b53fabfd03.h5'
p686
aS'/home/harrigan/projects/msmaccelerator2.villin/project/trajs/1a240ae1-1564-40fb-a7e7-6ee733d51ef0.h5'
p687
aS'/home/harrigan/projects/msmaccelerator2.villin/project/trajs/ba85862c-dfb4-4cbb-91a1-70e11379b49a.h5'
p688
aS'/home/harrigan/projects/msmaccelerator2.villin/project/trajs/6ad083af-263a-4b3b-a1a5-559c1bf23d04.h5'
p689
aS'/home/harrigan/projects/msmaccelerator2.villin/project/trajs/41d7ad59-ace5-48ac-aeb6-47daf55c9aa7.h5'
p690
aS'/home/harrigan/projects/msmaccelerator2.villin/project/trajs/3d1baebf-737e-4db6-9f98-cfb54b9d5763.h5'
p691
aS'/home/harrigan/projects/msmaccelerator2.villin/project/trajs/160a5823-8d34-454e-a3f5-b9575acc459b.h5'
p692
aS'/home/harrigan/projects/msmaccelerator2.villin/project/trajs/1e525340-bf30-4405-850a-0dddb49c41e5.h5'
p693
aS'/home/harrigan/projects/msmaccelerator2.villin/project/trajs/e876a33a-1027-4b91-9c50-4c5032205822.h5'
p694
aS'/home/harrigan/projects/msmaccelerator2.villin/project/trajs/3d7be57a-9087-4f4c-a8ab-71aa8e69b305.h5'
p695
aS'/home/harrigan/projects/msmaccelerator2.villin/project/trajs/fe4665ce-c95c-4ddb-b89f-d01b136ad65d.h5'
p696
aS'/home/harrigan/projects/msmaccelerator2.villin/project/trajs/abe156b0-d266-4723-83b9-289f717c6fd7.h5'
p697
aS'/home/harrigan/projects/msmaccelerator2.villin/project/trajs/224770ed-a8af-4635-836f-75a0703d0af1.h5'
p698
aS'/home/harrigan/projects/msmaccelerator2.villin/project/trajs/2ccba38f-bedc-4f33-ae73-e1dc5968aa2c.h5'
p699
aS'/home/harrigan/projects/msmaccelerator2.villin/project/trajs/0a8310fa-a432-48f0-ab72-100882bc7b40.h5'
p700
aS'/home/harrigan/projects/msmaccelerator2.villin/project/trajs/a098ecb8-4e73-41dd-8f9b-0eef23f8b2bc.h5'
p701
aS'/home/harrigan/projects/msmaccelerator2.villin/project/trajs/df2f08be-be20-4c6a-8d5e-8ea4fd7fdc9f.h5'
p702
aS'/home/harrigan/projects/msmaccelerator2.villin/project/trajs/f7466900-cd7a-4bd5-9baa-72b421a4f4cb.h5'
p703
aS'/home/harrigan/projects/msmaccelerator2.villin/project/trajs/598b614e-4c47-4ef1-93bb-9b0a699c999e.h5'
p704
aS'/home/harrigan/projects/msmaccelerator2.villin/project/trajs/261783f5-b903-45e6-a83d-1b75c9b8c685.h5'
p705
aS'/home/harrigan/projects/msmaccelerator2.villin/project/trajs/1acd0029-8640-44cc-9cda-4bd7975e2427.h5'
p706
aS'/home/harrigan/projects/msmaccelerator2.villin/project/trajs/9236dca8-74d2-48fe-bbd2-ad3b44ba5786.h5'
p707
aS'/home/harrigan/projects/msmaccelerator2.villin/project/trajs/83bbdbf0-5cf2-46c6-9123-895be99dd912.h5'
p708
aS'/home/harrigan/projects/msmaccelerator2.villin/project/trajs/1190dcb1-4d7b-42b4-9d58-2344927783fe.h5'
p709
aS'/home/harrigan/projects/msmaccelerator2.villin/project/trajs/9570d975-9209-4a73-a35c-9f387d9b78f3.h5'
p710
aS'/home/harrigan/projects/msmaccelerator2.villin/project/trajs/55db90f0-b870-462d-9284-40e34450b25a.h5'
p711
aS'/home/harrigan/projects/msmaccelerator2.villin/project/trajs/d5e8db56-b975-4dbf-87a0-8fe3df3427d6.h5'
p712
aS'/home/harrigan/projects/msmaccelerator2.villin/project/trajs/cef39337-76ea-48d2-b40f-11fd68bf53c3.h5'
p713
aS'/home/harrigan/projects/msmaccelerator2.villin/project/trajs/cfd5348d-ad58-462a-8811-38cbb5e4e2e0.h5'
p714
aS'/home/harrigan/projects/msmaccelerator2.villin/project/trajs/215fa2b0-ef4f-4267-9212-c27d51cd25f5.h5'
p715
aS'/home/harrigan/projects/msmaccelerator2.villin/project/trajs/1a9024bc-ddd5-46cd-ab7f-dafd6cf52429.h5'
p716
aS'/home/harrigan/projects/msmaccelerator2.villin/project/trajs/adfe0136-2197-458c-9fe8-31af8e652bc1.h5'
p717
aS'/home/harrigan/projects/msmaccelerator2.villin/project/trajs/e19d603c-8107-421b-a9b5-8d4c7d31ea86.h5'
p718
aS'/home/harrigan/projects/msmaccelerator2.villin/project/trajs/7b7b318d-42af-40c5-a5d6-e49abb5eb8a4.h5'
p719
aS'/home/harrigan/projects/msmaccelerator2.villin/project/trajs/4a69ba6f-a7af-4b12-8ff2-e9d45638be8e.h5'
p720
aS'/home/harrigan/projects/msmaccelerator2.villin/project/trajs/6f6a7029-35b0-420d-af0b-119239e8f741.h5'
p721
aS'/home/harrigan/projects/msmaccelerator2.villin/project/trajs/7017115d-a0ec-4ce6-8eb4-6a8a6efa8c39.h5'
p722
aS'/home/harrigan/projects/msmaccelerator2.villin/project/trajs/442d9f46-96ad-4821-99bc-525b7c60006d.h5'
p723
aS'/home/harrigan/projects/msmaccelerator2.villin/project/trajs/d93c669a-ab0b-476c-8ef2-a09b5f8c1cb9.h5'
p724
aS'/home/harrigan/projects/msmaccelerator2.villin/project/trajs/1d03c88e-7493-4ade-bb0d-8812f2037ab9.h5'
p725
aS'/home/harrigan/projects/msmaccelerator2.villin/project/trajs/3b7146d2-ec02-4501-b56c-16daea4a274a.h5'
p726
aS'/home/harrigan/projects/msmaccelerator2.villin/project/trajs/221fe3e7-e8ab-4d85-a7f0-e6364860915a.h5'
p727
aS'/home/harrigan/projects/msmaccelerator2.villin/project/trajs/0a29a717-00b4-48ca-9a4f-850e45cfe3e2.h5'
p728
aS'/home/harrigan/projects/msmaccelerator2.villin/project/trajs/f76a5eb0-a14d-4cf9-bda4-a1a1e98e50d2.h5'
p729
aS'/home/harrigan/projects/msmaccelerator2.villin/project/trajs/beb0d6f6-a59f-4f2e-9219-1af3dbedab10.h5'
p730
aS'/home/harrigan/projects/msmaccelerator2.villin/project/trajs/7d697b47-1f30-41ed-9855-a7c67c49b2be.h5'
p731
aS'/home/harrigan/projects/msmaccelerator2.villin/project/trajs/5a5d7436-3581-418d-aae5-efc548696eed.h5'
p732
aS'/home/harrigan/projects/msmaccelerator2.villin/project/trajs/3b1c6a96-68f5-4818-b930-7dd0876abbf7.h5'
p733
aS'/home/harrigan/projects/msmaccelerator2.villin/project/trajs/69652394-bf5d-43a9-ba30-f268d6171328.h5'
p734
aS'/home/harrigan/projects/msmaccelerator2.villin/project/trajs/45f87a23-c43b-40b7-b530-a1a1e1934dd8.h5'
p735
aS'/home/harrigan/projects/msmaccelerator2.villin/project/trajs/55390241-7ba7-4dae-8786-411025654567.h5'
p736
aS'/home/harrigan/projects/msmaccelerator2.villin/project/trajs/428c0822-3259-43be-a904-85227e396707.h5'
p737
aS'/home/harrigan/projects/msmaccelerator2.villin/project/trajs/1761524b-81c6-4845-86d1-7aae08d26474.h5'
p738
aS'/home/harrigan/projects/msmaccelerator2.villin/project/trajs/f44cb54e-5186-48cd-8c91-9c9975ec6286.h5'
p739
aS'/home/harrigan/projects/msmaccelerator2.villin/project/trajs/43caffd1-50ac-409e-88c7-a33ef399f18c.h5'
p740
aS'/home/harrigan/projects/msmaccelerator2.villin/project/trajs/75477974-b7b0-4049-9d46-b55353f80fad.h5'
p741
aS'/home/harrigan/projects/msmaccelerator2.villin/project/trajs/a945c571-85a1-4a22-a147-b90c90a539ed.h5'
p742
aS'/home/harrigan/projects/msmaccelerator2.villin/project/trajs/aa6fbd2f-928b-4854-9198-261702c92874.h5'
p743
aS'/home/harrigan/projects/msmaccelerator2.villin/project/trajs/4761a692-4ce8-49f2-9304-c61c77d6dc5b.h5'
p744
aS'/home/harrigan/projects/msmaccelerator2.villin/project/trajs/7a27cca3-ce3b-44d4-8b21-eaad0f62a0de.h5'
p745
aS'/home/harrigan/projects/msmaccelerator2.villin/project/trajs/c1ade26e-36ea-4417-9e97-a8a35bd22460.h5'
p746
aS'/home/harrigan/projects/msmaccelerator2.villin/project/trajs/29847840-03f1-489f-b0ce-39c0f573f4bd.h5'
p747
aS'/home/harrigan/projects/msmaccelerator2.villin/project/trajs/1b2cf668-7998-4143-a64d-13c20adcf1ed.h5'
p748
aS'/home/harrigan/projects/msmaccelerator2.villin/project/trajs/194b75fd-ba22-46ea-9e89-87c035bf3e18.h5'
p749
aS'/home/harrigan/projects/msmaccelerator2.villin/project/trajs/786468ef-013c-48a5-b4ee-586880b40f7f.h5'
p750
aS'/home/harrigan/projects/msmaccelerator2.villin/project/trajs/d6d87e31-9768-46d3-8a90-37579da1792e.h5'
p751
aS'/home/harrigan/projects/msmaccelerator2.villin/project/trajs/d4e1fd5c-857c-4847-af5f-ffe485efb68a.h5'
p752
aS'/home/harrigan/projects/msmaccelerator2.villin/project/trajs/f779265e-8b71-4b9e-9a82-dc8622bce776.h5'
p753
aS'/home/harrigan/projects/msmaccelerator2.villin/project/trajs/eb1639ce-3310-44e5-9f36-63084f684aa3.h5'
p754
aS'/home/harrigan/projects/msmaccelerator2.villin/project/trajs/9ff96f98-4953-4f98-9a74-036da5b1d2c9.h5'
p755
aS'/home/harrigan/projects/msmaccelerator2.villin/project/trajs/4568a979-6fda-4d78-8a0a-fabb515bf8bd.h5'
p756
aS'/home/harrigan/projects/msmaccelerator2.villin/project/trajs/12616645-77e0-41a3-84ea-c360a6fd1da6.h5'
p757
aS'/home/harrigan/projects/msmaccelerator2.villin/project/trajs/0bdcaf2d-7cbe-412e-8455-43e95ce4f050.h5'
p758
aS'/home/harrigan/projects/msmaccelerator2.villin/project/trajs/0dca5ea7-52ac-4aee-a0d8-1c7dfa3330d5.h5'
p759
aS'/home/harrigan/projects/msmaccelerator2.villin/project/trajs/ff12526d-9250-4f01-b93e-9c568290adad.h5'
p760
aS'/home/harrigan/projects/msmaccelerator2.villin/project/trajs/29756260-5bd3-4774-854d-6d8d6cb1c388.h5'
p761
aS'/home/harrigan/projects/msmaccelerator2.villin/project/trajs/5da00b29-4f82-4f2a-be7d-66a392174993.h5'
p762
aS'/home/harrigan/projects/msmaccelerator2.villin/project/trajs/3cd3a7b0-8de2-4fdc-a54c-22c5a15cc7d8.h5'
p763
aS'/home/harrigan/projects/msmaccelerator2.villin/project/trajs/c5f8df45-cea1-413a-ab1b-ad9c45f62718.h5'
p764
aS'/home/harrigan/projects/msmaccelerator2.villin/project/trajs/92e5c152-bd50-4178-a290-55caea793338.h5'
p765
aS'/home/harrigan/projects/msmaccelerator2.villin/project/trajs/49c377c2-2c14-4f8f-9b5a-4980ac52bba2.h5'
p766
a.